(lp0
(lp1
S'@@@@@@@@@@@@@@@@@@@@@@@@@@@@@@@@@@@@@@@@@,,###############SS@@@@@@@@@@@@@@@@@@@@@@@@@@@@@@@@@@@@@@@@\n@@@@@@@@@@@@@@@@@@@@@@@@@@@@@@@@@@@@@@@@@,,###############SS@@@@@@@@@@@@@@@@@@@@@@@@@@@@@@@@@@@@@@@@\n@@@@@@@@@@@@@@@@@@@@@@@@@@@@@@@@@@@@@@@@@++###############??@@@@@@@@@@@@@@@@@@@@@@@@@@@@@@@@@@@@@@@@\n@@@@@@@@@@@@@@@@@@@@@@@@@@@@@@@@@@@@@@@@@++###############??@@@@@@@@@@@@@@@@@@@@@@@@@@@@@@@@@@@@@@@@\n@@@@@@@@@@@@@@@@@@@@@@@@@@@@@@@@@@@@@@@@@??#################*@@@@@@@@@@@@@@@@@@@@@@@@@@@@@@@@@@@@@@@\n@@@@@@@@@@@@@@@@@@@@@@@@@@@@@@@@@@@@@@@@*###################%@@@@@@@@@@@@@@@@@@@@@@@@@@@@@@@@@@@@@@@\n@@@@@@@@@@@@@@@@@@@@@@@@@@@@@@@@@@@@@@@@*###################%@@@@@@@@@@@@@@@@@@@@@@@@@@@@@@@@@@@@@@@\n@@@@@@@@@@@@@@@@@@@@@@@@@@@@@@@@@@@@@@@@.####################,,@@@@@@@@@@@@@@@@@@@@@@@@@@@@@@@@@@@@@\n@@@@@@@@@@@@@@@@@@@@@@@@@@@@@@@@@@@@@@,,#####################++@@@@@@@@@@@@@@@@@@@@@@@@@@@@@@@@@@@@@\n@@@@@@@@@@@@@@@@@@@@@@@@@@@@@@@@@@@@@@,,#####################++@@@@@@@@@@@@@@@@@@@@@@@@@@@@@@@@@@@@@\n@@@@@@@@@@@@@@@@@@@@@@@@@@@@@@@@@@@@@@++#####################??@@@@@@@@@@@@@@@@@@@@@@@@@@@@@@@@@@@@@\n@@@@@@@@@@@@@@@@@@@@@@@@@@@@@@@@@@@@@@??#########?..###########**@@@@@@@@@@@@@@@@@@@@@@@@@@@@@@@@@@@\n@@@@@@@@@@@@@@@@@@@@@@@@@@@@@@@@@@@@@@??#########?..###########**@@@@@@@@@@@@@@@@@@@@@@@@@@@@@@@@@@@\n@@@@@@@@@@@@@@@@@@@@@@@@@@@@@@@@@@@@**###########S..###########..@@@@@@@@@@@@@@@@@@@@@@@@@@@@@@@@@@@\n@@@@@@@@@@@@@@@@@@@@@@@@@@@@@@@@@@@@%%###########*,,#############,@@@@@@@@@@@@@@@@@@@@@@@@@@@@@@@@@@\n@@@@@@@@@@@@@@@@@@@@@@@@@@@@@@@@@@@@%%###########*,,#############,@@@@@@@@@@@@@@@@@@@@@@@@@@@@@@@@@@\n@@@@@@@@@@@@@@@@@@@@@@@@@@@@@@@@@@@:###########??@@@..###########+@@@@@@@@@@@@@@@@@@@@@@@@@@@@@@@@@@\n@@@@@@@@@@@@@@@@@@@@@@@@@@@@@@@@@@@:###########??@@@..###########+@@@@@@@@@@@@@@@@@@@@@@@@@@@@@@@@@@\n@@@@@@@@@@@@@@@@@@@@@@@@@@@@@@@@@@@S###########SS@@@..###########?@@@@@@@@@@@@@@@@@@@@@@@@@@@@@@@@@@\n@@@@@@@@@@@@@@@@@@@@@@@@@@@@@@@@@@@############**@@@,,############**@@@@@@@@@@@@@@@@@@@@@@@@@@@@@@@@\n@@@@@@@@@@@@@@@@@@@@@@@@@@@@@@@@@@@############**@@@,,############**@@@@@@@@@@@@@@@@@@@@@@@@@@@@@@@@\n@@@@@@@@@@@@@@@@@@@@@@@@@@@@@@@@@..###########?@@@@@@@.###########..@@@@@@@@@@@@@@@@@@@@@@@@@@@@@@@@\n@@@@@@@@@@@@@@@@@@@@@@@@@@@@@@@@@%%###########S@@@@@@@.#############,@@@@@@@@@@@@@@@@@@@@@@@@@@@@@@@\n@@@@@@@@@@@@@@@@@@@@@@@@@@@@@@@@@%%###########S@@@@@@@.#############,@@@@@@@@@@@@@@@@@@@@@@@@@@@@@@@\n@@@@@@@@@@@@@@@@@@@@@@@@@@@@@@@@:#############:@@@@@@@,#############+@@@@@@@@@@@@@@@@@@@@@@@@@@@@@@@\n@@@@@@@@@@@@@@@@@@@@@@@@@@@@@@@@S###########%%@@@@@@@@@SS###########?@@@@@@@@@@@@@@@@@@@@@@@@@@@@@@@\n@@@@@@@@@@@@@@@@@@@@@@@@@@@@@@@@S###########%%@@@@@@@@@SS###########?@@@@@@@@@@@@@@@@@@@@@@@@@@@@@@@\n@@@@@@@@@@@@@@@@@@@@@@@@@@@@@@,,############++@@@@@@@@@::############**@@@@@@@@@@@@@@@@@@@@@@@@@@@@@\n@@@@@@@@@@@@@@@@@@@@@@@@@@@@@@..############,,@@@@@@@@@@@?###########..@@@@@@@@@@@@@@@@@@@@@@@@@@@@@\n@@@@@@@@@@@@@@@@@@@@@@@@@@@@@@..############,,@@@@@@@@@@@?###########..@@@@@@@@@@@@@@@@@@@@@@@@@@@@@\n@@@@@@@@@@@@@@@@@@@@@@@@@@@@@@%%###########.@@@@@@@@@@@@@+#############,@@@@@@@@@@@@@@@@@@@@@@@@@@@@\n@@@@@@@@@@@@@@@@@@@@@@@@@@@@@@%%###########.@@@@@@@@@@@@@+#############,@@@@@@@@@@@@@@@@@@@@@@@@@@@@\n@@@@@@@@@@@@@@@@@@@@@@@@@@@@@:#############*@@@@@@@@@@@@@,#############+@@@@@@@@@@@@@@@@@@@@@@@@@@@@\n@@@@@@@@@@@@@@@@@@@@@@@@@@@@@S###########??@@@@@@@@@@@@@@@..###########?@@@@@@@@@@@@@@@@@@@@@@@@@@@@\n@@@@@@@@@@@@@@@@@@@@@@@@@@@@@S###########??@@@@@@@@@@@@@@@..###########?@@@@@@@@@@@@@@@@@@@@@@@@@@@@\n@@@@@@@@@@@@@@@@@@@@@@@@@@@,,############SS@@@@@@@@@@@@@@@**############**@@@@@@@@@@@@@@@@@@@@@@@@@@\n@@@@@@@@@@@@@@@@@@@@@@@@@@@..############::@@@@@@@@@@@@@@@@@?###########..@@@@@@@@@@@@@@@@@@@@@@@@@@\n@@@@@@@@@@@@@@@@@@@@@@@@@@@..############::@@@@@@@@@@@@@@@@@?###########..@@@@@@@@@@@@@@@@@@@@@@@@@@\n@@@@@@@@@@@@@@@@@@@@@@@@@@@%%###########%@@@@@@@@@@@@@@@@@@@+#############,@@@@@@@@@@@@@@@@@@@@@@@@@\n@@@@@@@@@@@@@@@@@@@@@@@@@::#############.@@@@@@@@@@@@@@@@@@@:#############+@@@@@@@@@@@@@@@@@@@@@@@@@\n@@@@@@@@@@@@@@@@@@@@@@@@@::#############.@@@@@@@@@@@@@@@@@@@:#############+@@@@@@@@@@@@@@@@@@@@@@@@@\n@@@@@@@@@@@@@@@@@@@@@@@@@SS#############,@@@@@@@@@@@@@@@@@@@@%%###########?@@@@@@@@@@@@@@@@@@@@@@@@@\n@@@@@@@@@@@@@@@@@@@@@@@@,#############SS@@@@@@@@@@@@@@@@@@@@@..############**@@@@@@@@@@@@@@@@@@@@@@@\n@@@@@@@@@@@@@@@@@@@@@@@@,#############SS@@@@@@@@@@@@@@@@@@@@@..############**@@@@@@@@@@@@@@@@@@@@@@@\n@@@@@@@@@@@@@@@@@@@@@@@@+#############::@@@@@@@@@@@@@@@@@@@@@,,############..@@@@@@@@@@@@@@@@@@@@@@@\n@@@@@@@@@@@@@@@@@@@@@@@@+#############::@@@@@@@@@@@@@@@@@@@@@,,############..@@@@@@@@@@@@@@@@@@@@@@@\n@@@@@@@@@@@@@@@@@@@@@@@@?###########??@@@@@@@@@@@@@@@@@@@@@@@@@SS############,,@@@@@@@@@@@@@@@@@@@@@\n@@@@@@@@@@@@@@@@@@@@@@**############++@@@@@@@@@@@@@@@@@@@@@@@@@::############++@@@@@@@@@@@@@@@@@@@@@\n@@@@@@@@@@@@@@@@@@@@@@**############++@@@@@@@@@@@@@@@@@@@@@@@@@::############++@@@@@@@@@@@@@@@@@@@@@\n@@@@@@@@@@@@@@@@@@@@@@..############,,@@@@@@@@@@@@@@@@@@@@@@@@@@@%###########??@@@@@@@@@@@@@@@@@@@@@\n@@@@@@@@@@@@@@@@@@@@@,#############.@@@@@@@@@@@@@@@@@@@@@@@@@@@@@.#############*@@@@@@@@@@@@@@@@@@@@\n@@@@@@@@@@@@@@@@@@@@@,#############.@@@@@@@@@@@@@@@@@@@@@@@@@@@@@.#############*@@@@@@@@@@@@@@@@@@@@\n@@@@@@@@@@@@@@@@@@@@@+#############*@@@@@@@@@@@@@@@@@@@@@@@@@@@@@,#############.@@@@@@@@@@@@@@@@@@@@\n@@@@@@@@@@@@@@@@@@@@@?###########??@@@@@@@@@@@@@@@@@@@@@@@@@@@@@@@..############,,@@@@@@@@@@@@@@@@@@\n@@@@@@@@@@@@@@@@@@@@@?###########??@@@@@@@@@@@@@@@@@@@@@@@@@@@@@@@..############,,@@@@@@@@@@@@@@@@@@\n@@@@@@@@@@@@@@@@@@@**############++@@@@@@@@@@@@@@@@@@@@@@@@@@@@@@@**############++@@@@@@@@@@@@@@@@@@\n@@@@@@@@@@@@@@@@@@@..############::@@@@@@@@@@@@@@@@@@@@@@@@@@@@@@@@@?###########??@@@@@@@@@@@@@@@@@@\n@@@@@@@@@@@@@@@@@@@..############::@@@@@@@@@@@@@@@@@@@@@@@@@@@@@@@@@?###########??@@@@@@@@@@@@@@@@@@\n@@@@@@@@@@@@@@@@@@,#############%@@@@@@@@@@@@@@@@@@@@@@@@@@@@@@@@@@@+#############*@@@@@@@@@@@@@@@@@\n@@@@@@@@@@@@@@@@@@+#############.@@@@@@@@@@@@@@@@@@@@@@@@@@@@@@@@@@@,#############.@@@@@@@@@@@@@@@@@\n@@@@@@@@@@@@@@@@@@+#############.@@@@@@@@@@@@@@@@@@@@@@@@@@@@@@@@@@@,#############.@@@@@@@@@@@@@@@@@\n@@@@@@@@@@@@@@@@@@?#############,,,,,,,,,,,,,,,,,,,,,,,,,,,,,,,,,,,,,%%############,,@@@@@@@@@@@@@@@\n@@@@@@@@@@@@@@@@@@?#############,,,,,,,,,,,,,,,,,,,,,,,,,,,,,,,,,,,,,%%############,,@@@@@@@@@@@@@@@\n@@@@@@@@@@@@@@@@**#################################################################++@@@@@@@@@@@@@@@\n@@@@@@@@@@@@@@@@..#################################################################??@@@@@@@@@@@@@@@\n@@@@@@@@@@@@@@@@..#################################################################??@@@@@@@@@@@@@@@\n@@@@@@@@@@@@@@@,#####################################################################*@@@@@@@@@@@@@@\n@@@@@@@@@@@@@@@+#####################################################################.@@@@@@@@@@@@@@\n@@@@@@@@@@@@@@@+#####################################################################.@@@@@@@@@@@@@@\n@@@@@@@@@@@@@@@?######################################################################,,@@@@@@@@@@@@\n@@@@@@@@@@@@@**#######################################################################++@@@@@@@@@@@@\n@@@@@@@@@@@@@**#######################################################################++@@@@@@@@@@@@\n@@@@@@@@@@@@@%%#######################################################################??@@@@@@@@@@@@\n@@@@@@@@@@@::############??@@@@@@@@@@@@@@@@@@@@@@@@@@@@@@@@@@@@@@@@@@@@@@@.#############**@@@@@@@@@@\n@@@@@@@@@@@::############??@@@@@@@@@@@@@@@@@@@@@@@@@@@@@@@@@@@@@@@@@@@@@@@.#############**@@@@@@@@@@\n@@@@@@@@@@@SS############++@@@@@@@@@@@@@@@@@@@@@@@@@@@@@@@@@@@@@@@@@@@@@@@*#############..@@@@@@@@@@\n@@@@@@@@@@@SS############++@@@@@@@@@@@@@@@@@@@@@@@@@@@@@@@@@@@@@@@@@@@@@@@*#############..@@@@@@@@@@\n@@@@@@@@@@@##############,,@@@@@@@@@@@@@@@@@@@@@@@@@@@@@@@@@@@@@@@@@@@@@@@@??#############,@@@@@@@@@\n@@@@@@@@@@.#############.@@@@@@@@@@@@@@@@@@@@@@@@@@@@@@@@@@@@@@@@@@@@@@@@@@++#############+@@@@@@@@@\n@@@@@@@@@@.#############.@@@@@@@@@@@@@@@@@@@@@@@@@@@@@@@@@@@@@@@@@@@@@@@@@@++#############+@@@@@@@@@\n@@@@@@@@@@%#############*@@@@@@@@@@@@@@@@@@@@@@@@@@@@@@@@@@@@@@@@@@@@@@@@@@,,#############?@@@@@@@@@\n@@@@@@@@::############??@@@@@@@@@@@@@@@@@@@@@@@@@@@@@@@@@@@@@@@@@@@@@@@@@@@@@%%############**@@@@@@@\n@@@@@@@@::############??@@@@@@@@@@@@@@@@@@@@@@@@@@@@@@@@@@@@@@@@@@@@@@@@@@@@@%%############**@@@@@@@\n@@@@@@@@SS############SS@@@@@@@@@@@@@@@@@@@@@@@@@@@@@@@@@@@@@@@@@@@@@@@@@@@@@..############..@@@@@@@\n@@@@@@@,##############::@@@@@@@@@@@@@@@@@@@@@@@@@@@@@@@@@@@@@@@@@@@@@@@@@@@@@,,##############,@@@@@@\n@@@@@@@,##############::@@@@@@@@@@@@@@@@@@@@@@@@@@@@@@@@@@@@@@@@@@@@@@@@@@@@@,,##############,@@@@@@\n@@@@@@@.#############%@@@@@@@@@@@@@@@@@@@@@@@@@@@@@@@@@@@@@@@@@@@@@@@@@@@@@@@@@S#############+@@@@@@\n@@@@@@@%#############.@@@@@@@@@@@@@@@@@@@@@@@@@@@@@@@@@@@@@@@@@@@@@@@@@@@@@@@@@:#############?@@@@@@\n@@@@@@@%#############.@@@@@@@@@@@@@@@@@@@@@@@@@@@@@@@@@@@@@@@@@@@@@@@@@@@@@@@@@:#############?@@@@@@\n@@@@@::##############,@@@@@@@@@@@@@@@@@@@@@@@@@@@@@@@@@@@@@@@@@@@@@@@@@@@@@@@@@@%%############**@@@@\n@@@@@::##############,@@@@@@@@@@@@@@@@@@@@@@@@@@@@@@@@@@@@@@@@@@@@@@@@@@@@@@@@@@%%############**@@@@\n@@@@@SS############SS@@@@@@@@@@@@@@@@@@@@@@@@@@@@@@@@@@@@@@@@@@@@@@@@@@@@@@@@@@@..############..@@@@\n@@@@,##############::@@@@@@@@@@@@@@@@@@@@@@@@@@@@@@@@@@@@@@@@@@@@@@@@@@@@@@@@@@@,,##############,@@@\n@@@@,##############::@@@@@@@@@@@@@@@@@@@@@@@@@@@@@@@@@@@@@@@@@@@@@@@@@@@@@@@@@@@,,##############,@@@\n@@@@.#############?@@@@@@@@@@@@@@@@@@@@@@@@@@@@@@@@@@@@@@@@@@@@@@@@@@@@@@@@@@@@@@@.#############+@@@\n@@@@%#############+@@@@@@@@@@@@@@@@@@@@@@@@@@@@@@@@@@@@@@@@@@@@@@@@@@@@@@@@@@@@@@@*#############?@@@\n@@@@%#############+@@@@@@@@@@@@@@@@@@@@@@@@@@@@@@@@@@@@@@@@@@@@@@@@@@@@@@@@@@@@@@@*#############?@@@\n@@::##############,@@@@@@@@@@@@@@@@@@@@@@@@@@@@@@@@@@@@@@@@@@@@@@@@@@@@@@@@@@@@@@@@??############**@\n@@SS############..@@@@@@@@@@@@@@@@@@@@@@@@@@@@@@@@@@@@@@@@@@@@@@@@@@@@@@@@@@@@@@@@@++############..@\n@@SS############..@@@@@@@@@@@@@@@@@@@@@@@@@@@@@@@@@@@@@@@@@@@@@@@@@@@@@@@@@@@@@@@@@++############..@\n,,##############**@@@@@@@@@@@@@@@@@@@@@@@@@@@@@@@@@@@@@@@@@@@@@@@@@@@@@@@@@@@@@@@@@,,##############,\n..#############?@@@@@@@@@@@@@@@@@@@@@@@@@@@@@@@@@@@@@@@@@@@@@@@@@@@@@@@@@@@@@@@@@@@@@.#############+\n..#############?@@@@@@@@@@@@@@@@@@@@@@@@@@@@@@@@@@@@@@@@@@@@@@@@@@@@@@@@@@@@@@@@@@@@@.#############+\n..+++++++++++++*@@@@@@@@@@@@@@@@@@@@@@@@@@@@@@@@@@@@@@@@@@@@@@@@@@@@@@@@@@@@@@@@@@@@@:+++++++++++++.'
p2
aS'A'
p3
aa(lp4
S'@@@@@@@@@@@@@@@@@@@@@@@@@@@@@@@@@@@@@@@@@@@@@@@@@@@@@@@@@@@@@@@@@@@@@@@@@@@@@@@@@@@@@@@@@@@@@@@@@@@@\n@@@@@@@@@@@@@@@@@@@@@@@@@@@@@@@@@@@@@@@@@@@@@@@@@@@@@@@@@@@@@@@@@@@@@@@@@@@@@@@@@@@@@@@@@@@@@@@@@@@@\n@@@@@@@@@@@@@@@@@@@@@@@@@@@@@@@@@@@@@@@@@@@@@@@@@@@@@@@@@@@@@@@@@@@@@@@@@@@@@@@@@@@@@@@@@@@@@@@@@@@@\n@@@@@@@@@@@@@@@@@@@@@@@@@@@@@@@@@@@@@@@@@@@@@@@@@@@@@@@@@@@@@@@@@@@@@@@@@@@@@@@@@@@@@@@@@@@@@@@@@@@@\n@@@@@@@@@@@@@@@@@@@@@@@@@@@@@@@@@@@@@@@@@@@@@@@@@@@@@@@@@@@@@@@@@@@@@@@@@@@@@@@@@@@@@@@@@@@@@@@@@@@@\n@@@@@@@@@@@@@@@@@@@@@@@@@@@@@@@@@@@@@@@@@@@@@@@@@@@@@@@@@@@@@@@@@@@@@@@@@@@@@@@@@@@@@@@@@@@@@@@@@@@@\n@@@@@@@@@@@@@@@@@@@@@@@@@@@@@@@@@@@@@@@@@@@@@@@@@@@@@@@@@@@@@@@@@@@@@@@@@@@@@@@@@@@@@@@@@@@@@@@@@@@@\n@@@@@@@@@SS#############################################???%%SS+**,,@@@@@@@@@@@@@@@@@@@@@@@@@@@@@@@@\n@@@@@@@@@SS#############################################???%%SS+**,,@@@@@@@@@@@@@@@@@@@@@@@@@@@@@@@@\n@@@@@@@@@SS#########################################################%++::@@@@@@@@@@@@@@@@@@@@@@@@@@@\n@@@@@@@@@SS#########################################################%++::@@@@@@@@@@@@@@@@@@@@@@@@@@@\n@@@@@@@@@SS##############################################################..*@@@@@@@@@@@@@@@@@@@@@@@@\n@@@@@@@@@SS#################################################################..,,@@@@@@@@@@@@@@@@@@@@\n@@@@@@@@@SS#################################################################..,,@@@@@@@@@@@@@@@@@@@@\n@@@@@@@@@SS#####################################################################..@@@@@@@@@@@@@@@@@@\n@@@@@@@@@SS#####################################################################..@@@@@@@@@@@@@@@@@@\n@@@@@@@@@SS#######################################################################+@@@@@@@@@@@@@@@@@\n@@@@@@@@@SS#######################################################################+@@@@@@@@@@@@@@@@@\n@@@@@@@@@SS########################################################################++@@@@@@@@@@@@@@@\n@@@@@@@@@SS###############%%%%%%%%%%%%%%%%%%%%%%%%%???###############################**@@@@@@@@@@@@@\n@@@@@@@@@SS###############%%%%%%%%%%%%%%%%%%%%%%%%%???###############################**@@@@@@@@@@@@@\n@@@@@@@@@SS##############?@@@@@@@@@@@@@@@@@@@@@@@@@@@@@@@::....######################??,@@@@@@@@@@@@\n@@@@@@@@@SS##############?@@@@@@@@@@@@@@@@@@@@@@@@@@@@@@@::....######################??,@@@@@@@@@@@@\n@@@@@@@@@SS##############?@@@@@@@@@@@@@@@@@@@@@@@@@@@@@@@@@@@@@,..??###################+@@@@@@@@@@@@\n@@@@@@@@@SS##############?@@@@@@@@@@@@@@@@@@@@@@@@@@@@@@@@@@@@@@@@,,.##################?@@@@@@@@@@@@\n@@@@@@@@@SS##############?@@@@@@@@@@@@@@@@@@@@@@@@@@@@@@@@@@@@@@@@,,.##################?@@@@@@@@@@@@\n@@@@@@@@@SS##############?@@@@@@@@@@@@@@@@@@@@@@@@@@@@@@@@@@@@@@@@@@@..#################**@@@@@@@@@@\n@@@@@@@@@SS##############?@@@@@@@@@@@@@@@@@@@@@@@@@@@@@@@@@@@@@@@@@@@..#################**@@@@@@@@@@\n@@@@@@@@@SS##############?@@@@@@@@@@@@@@@@@@@@@@@@@@@@@@@@@@@@@@@@@@@,,??###############SS@@@@@@@@@@\n@@@@@@@@@SS##############?@@@@@@@@@@@@@@@@@@@@@@@@@@@@@@@@@@@@@@@@@@@,,??###############SS@@@@@@@@@@\n@@@@@@@@@SS##############?@@@@@@@@@@@@@@@@@@@@@@@@@@@@@@@@@@@@@@@@@@@@@..###############%%@@@@@@@@@@\n@@@@@@@@@SS##############?@@@@@@@@@@@@@@@@@@@@@@@@@@@@@@@@@@@@@@@@@@@@@@@#################@@@@@@@@@@\n@@@@@@@@@SS##############?@@@@@@@@@@@@@@@@@@@@@@@@@@@@@@@@@@@@@@@@@@@@@@@#################@@@@@@@@@@\n@@@@@@@@@SS##############?@@@@@@@@@@@@@@@@@@@@@@@@@@@@@@@@@@@@@@@@@@@@@@@..###############,,@@@@@@@@\n@@@@@@@@@SS##############?@@@@@@@@@@@@@@@@@@@@@@@@@@@@@@@@@@@@@@@@@@@@@@@..###############,,@@@@@@@@\n@@@@@@@@@SS##############?@@@@@@@@@@@@@@@@@@@@@@@@@@@@@@@@@@@@@@@@@@@@@@@++###############::@@@@@@@@\n@@@@@@@@@SS##############?@@@@@@@@@@@@@@@@@@@@@@@@@@@@@@@@@@@@@@@@@@@@@@@..###############::@@@@@@@@\n@@@@@@@@@SS##############?@@@@@@@@@@@@@@@@@@@@@@@@@@@@@@@@@@@@@@@@@@@@@@@..###############::@@@@@@@@\n@@@@@@@@@SS##############?@@@@@@@@@@@@@@@@@@@@@@@@@@@@@@@@@@@@@@@@@@@@@@@..###############::@@@@@@@@\n@@@@@@@@@SS##############?@@@@@@@@@@@@@@@@@@@@@@@@@@@@@@@@@@@@@@@@@@@@@@@..###############::@@@@@@@@\n@@@@@@@@@SS##############?@@@@@@@@@@@@@@@@@@@@@@@@@@@@@@@@@@@@@@@@@@@@@@@++###############,,@@@@@@@@\n@@@@@@@@@SS##############?@@@@@@@@@@@@@@@@@@@@@@@@@@@@@@@@@@@@@@@@@@@@@@@++###############,,@@@@@@@@\n@@@@@@@@@SS##############?@@@@@@@@@@@@@@@@@@@@@@@@@@@@@@@@@@@@@@@@@@@@@@@SS###############@@@@@@@@@@\n@@@@@@@@@SS##############?@@@@@@@@@@@@@@@@@@@@@@@@@@@@@@@@@@@@@@@@@@@@@@@%%#############%%@@@@@@@@@@\n@@@@@@@@@SS##############?@@@@@@@@@@@@@@@@@@@@@@@@@@@@@@@@@@@@@@@@@@@@@@@%%#############%%@@@@@@@@@@\n@@@@@@@@@SS##############?@@@@@@@@@@@@@@@@@@@@@@@@@@@@@@@@@@@@@@@@@@@@@,,###############SS@@@@@@@@@@\n@@@@@@@@@SS##############?@@@@@@@@@@@@@@@@@@@@@@@@@@@@@@@@@@@@@@@@@@@@@,,###############SS@@@@@@@@@@\n@@@@@@@@@SS##############?@@@@@@@@@@@@@@@@@@@@@@@@@@@@@@@@@@@@@@@@@@@@@++###############**@@@@@@@@@@\n@@@@@@@@@SS##############?@@@@@@@@@@@@@@@@@@@@@@@@@@@@@@@@@@@@@@@@@@@::################?@@@@@@@@@@@@\n@@@@@@@@@SS##############?@@@@@@@@@@@@@@@@@@@@@@@@@@@@@@@@@@@@@@@@@@@::################?@@@@@@@@@@@@\n@@@@@@@@@SS##############?@@@@@@@@@@@@@@@@@@@@@@@@@@@@@@@@@@@@@@@@@@,??################+@@@@@@@@@@@@\n@@@@@@@@@SS##############?@@@@@@@@@@@@@@@@@@@@@@@@@@@@@@@@@@@@@@@@@@,??################+@@@@@@@@@@@@\n@@@@@@@@@SS##############?@@@@@@@@@@@@@@@@@@@@@@@@@@@@@@@@@@@@@@@@**?################??,@@@@@@@@@@@@\n@@@@@@@@@SS##############?@@@@@@@@@@@@@@@@@@@@@@@@@@@@@@@@@@@@@@@@**?################??,@@@@@@@@@@@@\n@@@@@@@@@SS##############?@@@@@@@@@@@@@@@@@@@@@@@@@@@@@@@@@@@@@*..###################::@@@@@@@@@@@@@\n@@@@@@@@@SS###############,,,,,,,,,,,,,,,,,,,,,,,,,:::**.++..######################**@@@@@@@@@@@@@@@\n@@@@@@@@@SS###############,,,,,,,,,,,,,,,,,,,,,,,,,:::**.++..######################**@@@@@@@@@@@@@@@\n@@@@@@@@@SS#######################################################################*@@@@@@@@@@@@@@@@@\n@@@@@@@@@SS#######################################################################*@@@@@@@@@@@@@@@@@\n@@@@@@@@@SS###################################################################SS,,@@@@@@@@@@@@@@@@@@\n@@@@@@@@@SS##############################################################%%+,,@@@@@@@@@@@@@@@@@@@@@@\n@@@@@@@@@SS##############################################################%%+,,@@@@@@@@@@@@@@@@@@@@@@\n@@@@@@@@@SS############################################################++::@@@@@@@@@@@@@@@@@@@@@@@@@\n@@@@@@@@@SS############################################################++::@@@@@@@@@@@@@@@@@@@@@@@@@\n@@@@@@@@@SS################################################################?++,,@@@@@@@@@@@@@@@@@@@@\n@@@@@@@@@SS################################################################?++,,@@@@@@@@@@@@@@@@@@@@\n@@@@@@@@@SS#####################################################################++@@@@@@@@@@@@@@@@@@\n@@@@@@@@@SS#######################################################################?::@@@@@@@@@@@@@@@\n@@@@@@@@@SS#######################################################################?::@@@@@@@@@@@@@@@\n@@@@@@@@@SS###############SSSSSSSSSSSSSSSSSSSSSSSSSSSS...%%??########################**@@@@@@@@@@@@@\n@@@@@@@@@SS###############SSSSSSSSSSSSSSSSSSSSSSSSSSSS...%%??########################**@@@@@@@@@@@@@\n@@@@@@@@@SS##############?@@@@@@@@@@@@@@@@@@@@@@@@@@@@@@@@@@@,,*SS#####################*@@@@@@@@@@@@\n@@@@@@@@@SS##############?@@@@@@@@@@@@@@@@@@@@@@@@@@@@@@@@@@@@@@@@,,+###################::@@@@@@@@@@\n@@@@@@@@@SS##############?@@@@@@@@@@@@@@@@@@@@@@@@@@@@@@@@@@@@@@@@,,+###################::@@@@@@@@@@\n@@@@@@@@@SS##############?@@@@@@@@@@@@@@@@@@@@@@@@@@@@@@@@@@@@@@@@@@@,,%%###############??,,@@@@@@@@\n@@@@@@@@@SS##############?@@@@@@@@@@@@@@@@@@@@@@@@@@@@@@@@@@@@@@@@@@@,,%%###############??,,@@@@@@@@\n@@@@@@@@@SS##############?@@@@@@@@@@@@@@@@@@@@@@@@@@@@@@@@@@@@@@@@@@@@@,,%%###############SS@@@@@@@@\n@@@@@@@@@SS##############?@@@@@@@@@@@@@@@@@@@@@@@@@@@@@@@@@@@@@@@@@@@@@,,%%###############SS@@@@@@@@\n@@@@@@@@@SS##############?@@@@@@@@@@@@@@@@@@@@@@@@@@@@@@@@@@@@@@@@@@@@@@@,,#################::@@@@@@\n@@@@@@@@@SS##############?@@@@@@@@@@@@@@@@@@@@@@@@@@@@@@@@@@@@@@@@@@@@@@@@@.################SS@@@@@@\n@@@@@@@@@SS##############?@@@@@@@@@@@@@@@@@@@@@@@@@@@@@@@@@@@@@@@@@@@@@@@@@.################SS@@@@@@\n@@@@@@@@@SS##############?@@@@@@@@@@@@@@@@@@@@@@@@@@@@@@@@@@@@@@@@@@@@@@@@@@##################,@@@@@\n@@@@@@@@@SS##############?@@@@@@@@@@@@@@@@@@@@@@@@@@@@@@@@@@@@@@@@@@@@@@@@@@##################,@@@@@\n@@@@@@@@@SS##############?@@@@@@@@@@@@@@@@@@@@@@@@@@@@@@@@@@@@@@@@@@@@@@@@@@SS################*@@@@@\n@@@@@@@@@SS##############?@@@@@@@@@@@@@@@@@@@@@@@@@@@@@@@@@@@@@@@@@@@@@@@@@@..################S@@@@@\n@@@@@@@@@SS##############?@@@@@@@@@@@@@@@@@@@@@@@@@@@@@@@@@@@@@@@@@@@@@@@@@@..################S@@@@@\n@@@@@@@@@SS##############?@@@@@@@@@@@@@@@@@@@@@@@@@@@@@@@@@@@@@@@@@@@@@@@@@@::################%@@@@@\n@@@@@@@@@SS##############?@@@@@@@@@@@@@@@@@@@@@@@@@@@@@@@@@@@@@@@@@@@@@@@@@@::################%@@@@@\n@@@@@@@@@SS##############?@@@@@@@@@@@@@@@@@@@@@@@@@@@@@@@@@@@@@@@@@@@@@@@@@@@@################?@@@@@\n@@@@@@@@@SS##############?@@@@@@@@@@@@@@@@@@@@@@@@@@@@@@@@@@@@@@@@@@@@@@@@@@@@################?@@@@@\n@@@@@@@@@SS##############?@@@@@@@@@@@@@@@@@@@@@@@@@@@@@@@@@@@@@@@@@@@@@@@@@@@@#################@@@@@\n@@@@@@@@@SS##############?@@@@@@@@@@@@@@@@@@@@@@@@@@@@@@@@@@@@@@@@@@@@@@@@@@@@#################,,@@@\n@@@@@@@@@SS##############?@@@@@@@@@@@@@@@@@@@@@@@@@@@@@@@@@@@@@@@@@@@@@@@@@@@@#################,,@@@\n@@@@@@@@@SS##############?@@@@@@@@@@@@@@@@@@@@@@@@@@@@@@@@@@@@@@@@@@@@@@@@@@@@#################,,@@@\n@@@@@@@@@SS##############?@@@@@@@@@@@@@@@@@@@@@@@@@@@@@@@@@@@@@@@@@@@@@@@@@@@@#################,,@@@\n@@@@@@@@@SS##############?@@@@@@@@@@@@@@@@@@@@@@@@@@@@@@@@@@@@@@@@@@@@@@@@@@,,#################,,@@@\n@@@@@@@@@SS##############?@@@@@@@@@@@@@@@@@@@@@@@@@@@@@@@@@@@@@@@@@@@@@@@@@@::#################@@@@@\n@@@@@@@@@SS##############?@@@@@@@@@@@@@@@@@@@@@@@@@@@@@@@@@@@@@@@@@@@@@@@@@@::#################@@@@@\n@@@@@@@@@SS##############?@@@@@@@@@@@@@@@@@@@@@@@@@@@@@@@@@@@@@@@@@@@@@@@@@@..################?@@@@@\n@@@@@@@@@SS##############?@@@@@@@@@@@@@@@@@@@@@@@@@@@@@@@@@@@@@@@@@@@@@@@@@@..################?@@@@@\n@@@@@@@@@SS##############?@@@@@@@@@@@@@@@@@@@@@@@@@@@@@@@@@@@@@@@@@@@@@@@@@@..################%@@@@@\n@@@@@@@@@SS##############?@@@@@@@@@@@@@@@@@@@@@@@@@@@@@@@@@@@@@@@@@@@@@@@@@@..################%@@@@@\n@@@@@@@@@SS##############?@@@@@@@@@@@@@@@@@@@@@@@@@@@@@@@@@@@@@@@@@@@@@@@@@,##################S@@@@@\n@@@@@@@@@SS##############?@@@@@@@@@@@@@@@@@@@@@@@@@@@@@@@@@@@@@@@@@@@@@@@@@S##################*@@@@@\n@@@@@@@@@SS##############?@@@@@@@@@@@@@@@@@@@@@@@@@@@@@@@@@@@@@@@@@@@@@@@@@S##################*@@@@@\n@@@@@@@@@SS##############?@@@@@@@@@@@@@@@@@@@@@@@@@@@@@@@@@@@@@@@@@@@@@@@::###################@@@@@@\n@@@@@@@@@SS##############?@@@@@@@@@@@@@@@@@@@@@@@@@@@@@@@@@@@@@@@@@@@@@@@::###################@@@@@@\n@@@@@@@@@SS##############?@@@@@@@@@@@@@@@@@@@@@@@@@@@@@@@@@@@@@@@@@@@@@::###################SS@@@@@@\n@@@@@@@@@SS##############?@@@@@@@@@@@@@@@@@@@@@@@@@@@@@@@@@@@@@@@@@@@**#####################,,@@@@@@\n@@@@@@@@@SS##############?@@@@@@@@@@@@@@@@@@@@@@@@@@@@@@@@@@@@@@@@@@@**#####################,,@@@@@@\n@@@@@@@@@SS##############?@@@@@@@@@@@@@@@@@@@@@@@@@@@@@@@@@@@@@@@@::.#####################SS@@@@@@@@\n@@@@@@@@@SS##############?@@@@@@@@@@@@@@@@@@@@@@@@@@@@@@@@@@@@@@@@::.#####################SS@@@@@@@@\n@@@@@@@@@SS##############?@@@@@@@@@@@@@@@@@@@@@@@@@@@@@@@@@,,**S??######################??,,@@@@@@@@\n@@@@@@@@@SS##############?@@@@@@@@@@@@@@@@@@@@@@@@@@@@@@@@@,,**S??######################??,,@@@@@@@@\n@@@@@@@@@SS###############%%%%%%%%%%%%%%%%%%%%%%%%%%%%???###############################::@@@@@@@@@@\n@@@@@@@@@SS############################################################################*@@@@@@@@@@@@\n@@@@@@@@@SS############################################################################*@@@@@@@@@@@@\n@@@@@@@@@SS##########################################################################**@@@@@@@@@@@@@\n@@@@@@@@@SS##########################################################################**@@@@@@@@@@@@@\n@@@@@@@@@SS#######################################################################%,,@@@@@@@@@@@@@@@\n@@@@@@@@@SS#####################################################################..@@@@@@@@@@@@@@@@@@\n@@@@@@@@@SS#####################################################################..@@@@@@@@@@@@@@@@@@\n@@@@@@@@@SS################################################################?++,,@@@@@@@@@@@@@@@@@@@@\n@@@@@@@@@SS################################################################?++,,@@@@@@@@@@@@@@@@@@@@\n@@@@@@@@@SS##########################################################??SS**@@@@@@@@@@@@@@@@@@@@@@@@@\n@@@@@@@@@SS##########################################################??SS**@@@@@@@@@@@@@@@@@@@@@@@@@\n@@@@@@@@@SS################################################??%%.++**,@@@@@@@@@@@@@@@@@@@@@@@@@@@@@@@\n@@@@@@@@@@@@@@@@@@@@@@@@@@@@@@@@@@@@@@@@@@@@@@@@@@@@@@@@@@@@@@@@@@@@@@@@@@@@@@@@@@@@@@@@@@@@@@@@@@@@\n@@@@@@@@@@@@@@@@@@@@@@@@@@@@@@@@@@@@@@@@@@@@@@@@@@@@@@@@@@@@@@@@@@@@@@@@@@@@@@@@@@@@@@@@@@@@@@@@@@@@\n@@@@@@@@@@@@@@@@@@@@@@@@@@@@@@@@@@@@@@@@@@@@@@@@@@@@@@@@@@@@@@@@@@@@@@@@@@@@@@@@@@@@@@@@@@@@@@@@@@@@\n@@@@@@@@@@@@@@@@@@@@@@@@@@@@@@@@@@@@@@@@@@@@@@@@@@@@@@@@@@@@@@@@@@@@@@@@@@@@@@@@@@@@@@@@@@@@@@@@@@@@\n@@@@@@@@@@@@@@@@@@@@@@@@@@@@@@@@@@@@@@@@@@@@@@@@@@@@@@@@@@@@@@@@@@@@@@@@@@@@@@@@@@@@@@@@@@@@@@@@@@@@\n@@@@@@@@@@@@@@@@@@@@@@@@@@@@@@@@@@@@@@@@@@@@@@@@@@@@@@@@@@@@@@@@@@@@@@@@@@@@@@@@@@@@@@@@@@@@@@@@@@@@\n@@@@@@@@@@@@@@@@@@@@@@@@@@@@@@@@@@@@@@@@@@@@@@@@@@@@@@@@@@@@@@@@@@@@@@@@@@@@@@@@@@@@@@@@@@@@@@@@@@@@\n@@@@@@@@@@@@@@@@@@@@@@@@@@@@@@@@@@@@@@@@@@@@@@@@@@@@@@@@@@@@@@@@@@@@@@@@@@@@@@@@@@@@@@@@@@@@@@@@@@@@\n@@@@@@@@@@@@@@@@@@@@@@@@@@@@@@@@@@@@@@@@@@@@@@@@@@@@@@@@@@@@@@@@@@@@@@@@@@@@@@@@@@@@@@@@@@@@@@@@@@@@\n@@@@@@@@@@@@@@@@@@@@@@@@@@@@@@@@@@@@@@@@@@@@@@@@@@@@@@@@@@@@@@@@@@@@@@@@@@@@@@@@@@@@@@@@@@@@@@@@@@@@'
p5
aS'B'
p6
aa(lp7
S',,...............................................................................................@@@\n,,...............................................................................................@@@\n::###############################################################################################@@@\n::###############################################################################################@@@\n::###############################################################################################@@@\n::###############################################################################################@@@\n::###############################################################################################@@@\n::###############################################################################################@@@\n::###############################################################################################@@@\n::###############################################################################################@@@\n::###############################################################################################@@@\n::###############################################################################################@@@\n::###############################################################################################@@@\n::###############################################################################################@@@\n::###############################################################################################@@@\n::###############################################################################################@@@\n::###############??@@@@@@@@@@@@@@@@@@@@@@@@@@@@@@@@@@@@@@@@@@@@@@@@@@@@@@@@@@@@@@@@@@@@@@@@@@@@@@@@@\n::###############??@@@@@@@@@@@@@@@@@@@@@@@@@@@@@@@@@@@@@@@@@@@@@@@@@@@@@@@@@@@@@@@@@@@@@@@@@@@@@@@@@\n::###############??@@@@@@@@@@@@@@@@@@@@@@@@@@@@@@@@@@@@@@@@@@@@@@@@@@@@@@@@@@@@@@@@@@@@@@@@@@@@@@@@@\n::###############??@@@@@@@@@@@@@@@@@@@@@@@@@@@@@@@@@@@@@@@@@@@@@@@@@@@@@@@@@@@@@@@@@@@@@@@@@@@@@@@@@\n::###############??@@@@@@@@@@@@@@@@@@@@@@@@@@@@@@@@@@@@@@@@@@@@@@@@@@@@@@@@@@@@@@@@@@@@@@@@@@@@@@@@@\n::###############??@@@@@@@@@@@@@@@@@@@@@@@@@@@@@@@@@@@@@@@@@@@@@@@@@@@@@@@@@@@@@@@@@@@@@@@@@@@@@@@@@\n::###############??@@@@@@@@@@@@@@@@@@@@@@@@@@@@@@@@@@@@@@@@@@@@@@@@@@@@@@@@@@@@@@@@@@@@@@@@@@@@@@@@@\n::###############??@@@@@@@@@@@@@@@@@@@@@@@@@@@@@@@@@@@@@@@@@@@@@@@@@@@@@@@@@@@@@@@@@@@@@@@@@@@@@@@@@\n::###############??@@@@@@@@@@@@@@@@@@@@@@@@@@@@@@@@@@@@@@@@@@@@@@@@@@@@@@@@@@@@@@@@@@@@@@@@@@@@@@@@@\n::###############??@@@@@@@@@@@@@@@@@@@@@@@@@@@@@@@@@@@@@@@@@@@@@@@@@@@@@@@@@@@@@@@@@@@@@@@@@@@@@@@@@\n::###############??@@@@@@@@@@@@@@@@@@@@@@@@@@@@@@@@@@@@@@@@@@@@@@@@@@@@@@@@@@@@@@@@@@@@@@@@@@@@@@@@@\n::###############??@@@@@@@@@@@@@@@@@@@@@@@@@@@@@@@@@@@@@@@@@@@@@@@@@@@@@@@@@@@@@@@@@@@@@@@@@@@@@@@@@\n::###############??@@@@@@@@@@@@@@@@@@@@@@@@@@@@@@@@@@@@@@@@@@@@@@@@@@@@@@@@@@@@@@@@@@@@@@@@@@@@@@@@@\n::###############??@@@@@@@@@@@@@@@@@@@@@@@@@@@@@@@@@@@@@@@@@@@@@@@@@@@@@@@@@@@@@@@@@@@@@@@@@@@@@@@@@\n::###############??@@@@@@@@@@@@@@@@@@@@@@@@@@@@@@@@@@@@@@@@@@@@@@@@@@@@@@@@@@@@@@@@@@@@@@@@@@@@@@@@@\n::###############??@@@@@@@@@@@@@@@@@@@@@@@@@@@@@@@@@@@@@@@@@@@@@@@@@@@@@@@@@@@@@@@@@@@@@@@@@@@@@@@@@\n::###############??@@@@@@@@@@@@@@@@@@@@@@@@@@@@@@@@@@@@@@@@@@@@@@@@@@@@@@@@@@@@@@@@@@@@@@@@@@@@@@@@@\n::###############??@@@@@@@@@@@@@@@@@@@@@@@@@@@@@@@@@@@@@@@@@@@@@@@@@@@@@@@@@@@@@@@@@@@@@@@@@@@@@@@@@\n::###############??@@@@@@@@@@@@@@@@@@@@@@@@@@@@@@@@@@@@@@@@@@@@@@@@@@@@@@@@@@@@@@@@@@@@@@@@@@@@@@@@@\n::###############??@@@@@@@@@@@@@@@@@@@@@@@@@@@@@@@@@@@@@@@@@@@@@@@@@@@@@@@@@@@@@@@@@@@@@@@@@@@@@@@@@\n::###############??@@@@@@@@@@@@@@@@@@@@@@@@@@@@@@@@@@@@@@@@@@@@@@@@@@@@@@@@@@@@@@@@@@@@@@@@@@@@@@@@@\n::###############??@@@@@@@@@@@@@@@@@@@@@@@@@@@@@@@@@@@@@@@@@@@@@@@@@@@@@@@@@@@@@@@@@@@@@@@@@@@@@@@@@\n::###############??@@@@@@@@@@@@@@@@@@@@@@@@@@@@@@@@@@@@@@@@@@@@@@@@@@@@@@@@@@@@@@@@@@@@@@@@@@@@@@@@@\n::###############??@@@@@@@@@@@@@@@@@@@@@@@@@@@@@@@@@@@@@@@@@@@@@@@@@@@@@@@@@@@@@@@@@@@@@@@@@@@@@@@@@\n::###############??@@@@@@@@@@@@@@@@@@@@@@@@@@@@@@@@@@@@@@@@@@@@@@@@@@@@@@@@@@@@@@@@@@@@@@@@@@@@@@@@@\n::###############??@@@@@@@@@@@@@@@@@@@@@@@@@@@@@@@@@@@@@@@@@@@@@@@@@@@@@@@@@@@@@@@@@@@@@@@@@@@@@@@@@\n::###############??@@@@@@@@@@@@@@@@@@@@@@@@@@@@@@@@@@@@@@@@@@@@@@@@@@@@@@@@@@@@@@@@@@@@@@@@@@@@@@@@@\n::###############??@@@@@@@@@@@@@@@@@@@@@@@@@@@@@@@@@@@@@@@@@@@@@@@@@@@@@@@@@@@@@@@@@@@@@@@@@@@@@@@@@\n::###############??@@@@@@@@@@@@@@@@@@@@@@@@@@@@@@@@@@@@@@@@@@@@@@@@@@@@@@@@@@@@@@@@@@@@@@@@@@@@@@@@@\n::###############??@@@@@@@@@@@@@@@@@@@@@@@@@@@@@@@@@@@@@@@@@@@@@@@@@@@@@@@@@@@@@@@@@@@@@@@@@@@@@@@@@\n::###############??@@@@@@@@@@@@@@@@@@@@@@@@@@@@@@@@@@@@@@@@@@@@@@@@@@@@@@@@@@@@@@@@@@@@@@@@@@@@@@@@@\n::###############??@@@@@@@@@@@@@@@@@@@@@@@@@@@@@@@@@@@@@@@@@@@@@@@@@@@@@@@@@@@@@@@@@@@@@@@@@@@@@@@@@\n::###############??@@@@@@@@@@@@@@@@@@@@@@@@@@@@@@@@@@@@@@@@@@@@@@@@@@@@@@@@@@@@@@@@@@@@@@@@@@@@@@@@@\n::###############??@@@@@@@@@@@@@@@@@@@@@@@@@@@@@@@@@@@@@@@@@@@@@@@@@@@@@@@@@@@@@@@@@@@@@@@@@@@@@@@@@\n::###############??@@@@@@@@@@@@@@@@@@@@@@@@@@@@@@@@@@@@@@@@@@@@@@@@@@@@@@@@@@@@@@@@@@@@@@@@@@@@@@@@@\n::###############??@@@@@@@@@@@@@@@@@@@@@@@@@@@@@@@@@@@@@@@@@@@@@@@@@@@@@@@@@@@@@@@@@@@@@@@@@@@@@@@@@\n::###############??@@@@@@@@@@@@@@@@@@@@@@@@@@@@@@@@@@@@@@@@@@@@@@@@@@@@@@@@@@@@@@@@@@@@@@@@@@@@@@@@@\n::###############??@@@@@@@@@@@@@@@@@@@@@@@@@@@@@@@@@@@@@@@@@@@@@@@@@@@@@@@@@@@@@@@@@@@@@@@@@@@@@@@@@\n::###############??@@@@@@@@@@@@@@@@@@@@@@@@@@@@@@@@@@@@@@@@@@@@@@@@@@@@@@@@@@@@@@@@@@@@@@@@@@@@@@@@@\n::#########################################################################################::@@@@@@@\n::#########################################################################################::@@@@@@@\n::#########################################################################################::@@@@@@@\n::#########################################################################################::@@@@@@@\n::#########################################################################################::@@@@@@@\n::#########################################################################################::@@@@@@@\n::#########################################################################################::@@@@@@@\n::#########################################################################################::@@@@@@@\n::#########################################################################################::@@@@@@@\n::#########################################################################################::@@@@@@@\n::#########################################################################################::@@@@@@@\n::#########################################################################################::@@@@@@@\n::#########################################################################################::@@@@@@@\n::###############??************************************************************************,,@@@@@@@\n::###############??************************************************************************,,@@@@@@@\n::###############??@@@@@@@@@@@@@@@@@@@@@@@@@@@@@@@@@@@@@@@@@@@@@@@@@@@@@@@@@@@@@@@@@@@@@@@@@@@@@@@@@\n::###############??@@@@@@@@@@@@@@@@@@@@@@@@@@@@@@@@@@@@@@@@@@@@@@@@@@@@@@@@@@@@@@@@@@@@@@@@@@@@@@@@@\n::###############??@@@@@@@@@@@@@@@@@@@@@@@@@@@@@@@@@@@@@@@@@@@@@@@@@@@@@@@@@@@@@@@@@@@@@@@@@@@@@@@@@\n::###############??@@@@@@@@@@@@@@@@@@@@@@@@@@@@@@@@@@@@@@@@@@@@@@@@@@@@@@@@@@@@@@@@@@@@@@@@@@@@@@@@@\n::###############??@@@@@@@@@@@@@@@@@@@@@@@@@@@@@@@@@@@@@@@@@@@@@@@@@@@@@@@@@@@@@@@@@@@@@@@@@@@@@@@@@\n::###############??@@@@@@@@@@@@@@@@@@@@@@@@@@@@@@@@@@@@@@@@@@@@@@@@@@@@@@@@@@@@@@@@@@@@@@@@@@@@@@@@@\n::###############??@@@@@@@@@@@@@@@@@@@@@@@@@@@@@@@@@@@@@@@@@@@@@@@@@@@@@@@@@@@@@@@@@@@@@@@@@@@@@@@@@\n::###############??@@@@@@@@@@@@@@@@@@@@@@@@@@@@@@@@@@@@@@@@@@@@@@@@@@@@@@@@@@@@@@@@@@@@@@@@@@@@@@@@@\n::###############??@@@@@@@@@@@@@@@@@@@@@@@@@@@@@@@@@@@@@@@@@@@@@@@@@@@@@@@@@@@@@@@@@@@@@@@@@@@@@@@@@\n::###############??@@@@@@@@@@@@@@@@@@@@@@@@@@@@@@@@@@@@@@@@@@@@@@@@@@@@@@@@@@@@@@@@@@@@@@@@@@@@@@@@@\n::###############??@@@@@@@@@@@@@@@@@@@@@@@@@@@@@@@@@@@@@@@@@@@@@@@@@@@@@@@@@@@@@@@@@@@@@@@@@@@@@@@@@\n::###############??@@@@@@@@@@@@@@@@@@@@@@@@@@@@@@@@@@@@@@@@@@@@@@@@@@@@@@@@@@@@@@@@@@@@@@@@@@@@@@@@@\n::###############??@@@@@@@@@@@@@@@@@@@@@@@@@@@@@@@@@@@@@@@@@@@@@@@@@@@@@@@@@@@@@@@@@@@@@@@@@@@@@@@@@\n::###############??@@@@@@@@@@@@@@@@@@@@@@@@@@@@@@@@@@@@@@@@@@@@@@@@@@@@@@@@@@@@@@@@@@@@@@@@@@@@@@@@@\n::###############??@@@@@@@@@@@@@@@@@@@@@@@@@@@@@@@@@@@@@@@@@@@@@@@@@@@@@@@@@@@@@@@@@@@@@@@@@@@@@@@@@\n::###############??@@@@@@@@@@@@@@@@@@@@@@@@@@@@@@@@@@@@@@@@@@@@@@@@@@@@@@@@@@@@@@@@@@@@@@@@@@@@@@@@@\n::###############??@@@@@@@@@@@@@@@@@@@@@@@@@@@@@@@@@@@@@@@@@@@@@@@@@@@@@@@@@@@@@@@@@@@@@@@@@@@@@@@@@\n::###############??@@@@@@@@@@@@@@@@@@@@@@@@@@@@@@@@@@@@@@@@@@@@@@@@@@@@@@@@@@@@@@@@@@@@@@@@@@@@@@@@@\n::###############??@@@@@@@@@@@@@@@@@@@@@@@@@@@@@@@@@@@@@@@@@@@@@@@@@@@@@@@@@@@@@@@@@@@@@@@@@@@@@@@@@\n::###############??@@@@@@@@@@@@@@@@@@@@@@@@@@@@@@@@@@@@@@@@@@@@@@@@@@@@@@@@@@@@@@@@@@@@@@@@@@@@@@@@@\n::###############??@@@@@@@@@@@@@@@@@@@@@@@@@@@@@@@@@@@@@@@@@@@@@@@@@@@@@@@@@@@@@@@@@@@@@@@@@@@@@@@@@\n::###############??@@@@@@@@@@@@@@@@@@@@@@@@@@@@@@@@@@@@@@@@@@@@@@@@@@@@@@@@@@@@@@@@@@@@@@@@@@@@@@@@@\n::###############??@@@@@@@@@@@@@@@@@@@@@@@@@@@@@@@@@@@@@@@@@@@@@@@@@@@@@@@@@@@@@@@@@@@@@@@@@@@@@@@@@\n::###############??@@@@@@@@@@@@@@@@@@@@@@@@@@@@@@@@@@@@@@@@@@@@@@@@@@@@@@@@@@@@@@@@@@@@@@@@@@@@@@@@@\n::###############??@@@@@@@@@@@@@@@@@@@@@@@@@@@@@@@@@@@@@@@@@@@@@@@@@@@@@@@@@@@@@@@@@@@@@@@@@@@@@@@@@\n::###############??@@@@@@@@@@@@@@@@@@@@@@@@@@@@@@@@@@@@@@@@@@@@@@@@@@@@@@@@@@@@@@@@@@@@@@@@@@@@@@@@@\n::###############??@@@@@@@@@@@@@@@@@@@@@@@@@@@@@@@@@@@@@@@@@@@@@@@@@@@@@@@@@@@@@@@@@@@@@@@@@@@@@@@@@\n::###############??@@@@@@@@@@@@@@@@@@@@@@@@@@@@@@@@@@@@@@@@@@@@@@@@@@@@@@@@@@@@@@@@@@@@@@@@@@@@@@@@@\n::###############??@@@@@@@@@@@@@@@@@@@@@@@@@@@@@@@@@@@@@@@@@@@@@@@@@@@@@@@@@@@@@@@@@@@@@@@@@@@@@@@@@\n::###############??@@@@@@@@@@@@@@@@@@@@@@@@@@@@@@@@@@@@@@@@@@@@@@@@@@@@@@@@@@@@@@@@@@@@@@@@@@@@@@@@@\n::###############??@@@@@@@@@@@@@@@@@@@@@@@@@@@@@@@@@@@@@@@@@@@@@@@@@@@@@@@@@@@@@@@@@@@@@@@@@@@@@@@@@\n::###############??@@@@@@@@@@@@@@@@@@@@@@@@@@@@@@@@@@@@@@@@@@@@@@@@@@@@@@@@@@@@@@@@@@@@@@@@@@@@@@@@@\n::###############??@@@@@@@@@@@@@@@@@@@@@@@@@@@@@@@@@@@@@@@@@@@@@@@@@@@@@@@@@@@@@@@@@@@@@@@@@@@@@@@@@\n::###############??@@@@@@@@@@@@@@@@@@@@@@@@@@@@@@@@@@@@@@@@@@@@@@@@@@@@@@@@@@@@@@@@@@@@@@@@@@@@@@@@@\n::###############??@@@@@@@@@@@@@@@@@@@@@@@@@@@@@@@@@@@@@@@@@@@@@@@@@@@@@@@@@@@@@@@@@@@@@@@@@@@@@@@@@\n::###############??@@@@@@@@@@@@@@@@@@@@@@@@@@@@@@@@@@@@@@@@@@@@@@@@@@@@@@@@@@@@@@@@@@@@@@@@@@@@@@@@@\n::###############??@@@@@@@@@@@@@@@@@@@@@@@@@@@@@@@@@@@@@@@@@@@@@@@@@@@@@@@@@@@@@@@@@@@@@@@@@@@@@@@@@\n::###############??@@@@@@@@@@@@@@@@@@@@@@@@@@@@@@@@@@@@@@@@@@@@@@@@@@@@@@@@@@@@@@@@@@@@@@@@@@@@@@@@@\n::###############??@@@@@@@@@@@@@@@@@@@@@@@@@@@@@@@@@@@@@@@@@@@@@@@@@@@@@@@@@@@@@@@@@@@@@@@@@@@@@@@@@\n::###############??@@@@@@@@@@@@@@@@@@@@@@@@@@@@@@@@@@@@@@@@@@@@@@@@@@@@@@@@@@@@@@@@@@@@@@@@@@@@@@@@@\n::###############??@@@@@@@@@@@@@@@@@@@@@@@@@@@@@@@@@@@@@@@@@@@@@@@@@@@@@@@@@@@@@@@@@@@@@@@@@@@@@@@@@\n::###############??.................................................................................\n::###############??.................................................................................\n::##################################################################################################\n::##################################################################################################\n::##################################################################################################\n::##################################################################################################\n::##################################################################################################\n::##################################################################################################\n::##################################################################################################\n::##################################################################################################\n::##################################################################################################\n::##################################################################################################\n::##################################################################################################\n::##################################################################################################\n::##################################################################################################'
p8
aS'E'
p9
aa(lp10
S',,,,,,,,,,,++++++++++++++++++++++++++++++++++++++++++++++++++++++++++++++++++++++++++++++++.........\n,,,,,,,,,,,++++++++++++++++++++++++++++++++++++++++++++++++++++++++++++++++++++++++++++++++.........\n,,,,,,,,,,,++++++++++++++++++++++++++++++++++++++++++++++++++++++++++++++++++++++++++++++++.........\n,,,,,,,,,,,++++++++++++++++++++++++++++++++++++++++++++++++++++++++++++++++++++++++++++++++.........\n,,,,,,,,,,,++++++++++++++++++++++++++++++++++++++++++++++++++++++++++++++++++++++++++++++++.........\n,,,,,,,,,,,++++++++++++++++++++++++++++++++++++++++++++++++++++++++++++++++++++++++++++++++.........\n,,,,,,,,,,,++++++++++++++++++++++++++++++++++++++++++++++++++++++++++++++++++++++++++++++++.........\n,,,,,,,,,,,++++++++++++++++++++++++++++++++++++++++++++++++++++++++++++++++++++++++++++++++.........\n,,,,,,,,,,,++++++++++++++++++++++++++++++++++++++++++++++++++++++++++++++++++++++++++++++++.........\n,,,,,,,,,,,++++++++++++++++++++++++++++++++++++++++++++++++++++++++++++++++++++++++++++++++.........\n,,,,,,,,,,,++++++++++++++++++++++++++++++++++++++++++++++++++++++++++++++++++++++++++++++++.........\n:::::::::::################################################################################?????????\n:::::::::::################################################################################?????????\n:::::::::::################################################################################?????????\n:::::::::::################################################################################?????????\n:::::::::::################################################################################?????????\n:::::::::::################################################################################?????????\n:::::::::::################################################################################?????????\n:::::::::::################################################################################?????????\n:::::::::::################################################################################?????????\n:::::::::::################################################################################?????????\n:::::::::::################################################################################?????????\n:::::::::::################################################################################?????????\n:::::::::::################################################################################?????????\n:::::::::::################################################################################?????????\n:::::::::::################################################################################?????????\n:::::::::::################################################################################?????????\n:::::::::::################################################################################?????????\n:::::::::::################################################################################?????????\n:::::::::::################################################################################?????????\n:::::::::::################################################################################?????????\n:::::::::::################################################################################?????????\n:::::::::::################################################################################?????????\n:::::::::::################################################################################?????????\n:::::::::::################################################################################?????????\n:::::::::::################################################################################?????????\n:::::::::::################################################################################?????????\n:::::::::::################################################################################?????????\n:::::::::::################################################################################?????????\n:::::::::::################################################################################?????????\n:::::::::::################################################################################?????????\n:::::::::::################################################################################?????????\n:::::::::::################################################################################?????????\n:::::::::::################################################################################?????????\n:::::::::::################################################################################?????????\n:::::::::::################################################################################?????????\n:::::::::::################################################################################?????????\n:::::::::::################################################################################?????????\n:::::::::::################################################################################?????????\n:::::::::::################################################################################?????????\n:::::::::::################################################################################?????????\n:::::::::::################################################################################?????????\n:::::::::::################################################################################?????????\n:::::::::::################################################################################?????????\n:::::::::::################################################################################?????????\n:::::::::::################################################################################?????????\n:::::::::::################################################################################?????????\n:::::::::::################################################################################?????????\n:::::::::::################################################################################?????????\n:::::::::::################################################################################?????????\n:::::::::::################################################################################?????????\n:::::::::::################################################################################?????????\n:::::::::::################################################################################?????????\n:::::::::::################################################################################?????????\n:::::::::::################################################################################?????????\n:::::::::::################################################################################?????????\n:::::::::::################################################################################?????????\n:::::::::::################################################################################?????????\n:::::::::::################################################################################?????????\n:::::::::::################################################################################?????????\n:::::::::::################################################################################?????????\n:::::::::::################################################################################?????????\n:::::::::::################################################################################?????????\n:::::::::::################################################################################?????????\n:::::::::::################################################################################?????????\n:::::::::::################################################################################?????????\n:::::::::::################################################################################?????????\n:::::::::::################################################################################?????????\n:::::::::::################################################################################?????????\n:::::::::::################################################################################?????????\n:::::::::::################################################################################?????????\n:::::::::::################################################################################?????????\n:::::::::::################################################################################?????????\n:::::::::::################################################################################?????????\n:::::::::::################################################################################?????????\n:::::::::::################################################################################?????????\n:::::::::::################################################################################?????????\n:::::::::::################################################################################?????????\n:::::::::::################################################################################?????????\n:::::::::::################################################################################?????????\n:::::::::::################################################################################?????????\n:::::::::::################################################################################?????????\n:::::::::::################################################################################?????????\n:::::::::::################################################################################?????????\n:::::::::::################################################################################?????????\n:::::::::::################################################################################?????????\n:::::::::::################################################################################?????????\n:::::::::::################################################################################?????????\n:::::::::::################################################################################?????????\n:::::::::::################################################################################?????????\n:::::::::::################################################################################?????????\n:::::::::::################################################################################?????????\n:::::::::::################################################################################?????????\n:::::::::::################################################################################?????????\n:::::::::::################################################################################?????????\n:::::::::::################################################################################?????????\n:::::::::::################################################################################?????????\n:::::::::::################################################################################?????????\n:::::::::::################################################################################?????????\n:::::::::::################################################################################?????????\n:::::::::::################################################################################?????????\n:::::::::::################################################################################?????????\n:::::::::::################################################################################?????????\n:::::::::::################################################################################?????????\n:::::::::::################################################################################?????????\n:::::::::::################################################################################?????????\n:::::::::::################################################################################?????????\n:::::::::::################################################################################?????????\n:::::::::::################################################################################?????????\n:::::::::::################################################################################?????????\n:::::::::::################################################################################?????????\n:::::::::::################################################################################?????????\n:::::::::::################################################################################?????????\n:::::::::::################################################################################?????????\n:::::::::::################################################################################?????????\n:::::::::::################################################################################?????????\n:::::::::::################################################################################?????????\n:::::::::::################################################################################?????????\n:::::::::::################################################################################?????????\n:::::::::::################################################################################?????????\n:::::::::::################################################################################?????????\n:::::::::::################################################################################?????????\n:::::::::::################################################################################?????????\n:::::::::::################################################################################?????????\n:::::::::::################################################################################?????????\n:::::::::::################################################################################?????????\n:::::::::::################################################################################?????????\n:::::::::::################################################################################?????????\n:::::::::::################################################################################?????????\n:::::::::::################################################################################?????????\n:::::::::::################################################################################?????????\n:::::::::::################################################################################?????????\n:::::::::::################################################################################?????????\n:::::::::::################################################################################?????????\n:::::::::::################################################################################?????????\n:::::::::::################################################################################?????????\n:::::::::::################################################################################?????????\n:::::::::::################################################################################?????????\n:::::::::::################################################################################?????????\n:::::::::::################################################################################?????????\n:::::::::::################################################################################?????????\n:::::::::::################################################################################?????????\n:::::::::::################################################################################?????????\n:::::::::::################################################################################?????????\n:::::::::::################################################################################?????????\n:::::::::::################################################################################?????????\n:::::::::::################################################################################?????????\n:::::::::::################################################################################?????????\n:::::::::::################################################################################?????????\n:::::::::::################################################################################?????????\n:::::::::::################################################################################?????????\n:::::::::::################################################################################?????????\n:::::::::::################################################################################?????????\n:::::::::::################################################################################?????????\n:::::::::::################################################################################?????????\n:::::::::::################################################################################?????????\n:::::::::::################################################################################?????????\n:::::::::::################################################################################?????????\n:::::::::::################################################################################?????????\n:::::::::::################################################################################?????????\n:::::::::::################################################################################?????????\n:::::::::::################################################################################?????????\n:::::::::::################################################################################?????????\n:::::::::::################################################################################?????????\n:::::::::::################################################################################?????????\n:::::::::::################################################################################?????????\n:::::::::::################################################################################?????????\n:::::::::::################################################################################?????????\n:::::::::::################################################################################?????????\n:::::::::::################################################################################?????????\n:::::::::::################################################################################?????????\n:::::::::::################################################################################?????????\n:::::::::::################################################################################?????????\n:::::::::::################################################################################?????????\n:::::::::::################################################################################?????????\n:::::::::::################################################################################?????????\n:::::::::::################################################################################?????????\n:::::::::::################################################################################?????????\n:::::::::::################################################################################?????????\n:::::::::::################################################################################?????????\n:::::::::::################################################################################?????????\n:::::::::::################################################################################?????????\n:::::::::::################################################################################?????????\n:::::::::::################################################################################?????????\n:::::::::::################################################################################?????????\n:::::::::::################################################################################?????????\n:::::::::::################################################################################?????????\n:::::::::::################################################################################?????????\n:::::::::::################################################################################?????????\n:::::::::::################################################################################?????????\n:::::::::::################################################################################?????????\n:::::::::::################################################################################?????????\n:::::::::::################################################################################?????????\n:::::::::::################################################################################?????????\n:::::::::::################################################################################?????????\n:::::::::::################################################################################?????????\n:::::::::::################################################################################?????????\n:::::::::::################################################################################?????????\n:::::::::::################################################################################?????????\n:::::::::::################################################################################?????????\n:::::::::::################################################################################?????????\n:::::::::::################################################################################?????????\n:::::::::::################################################################################?????????\n:::::::::::################################################################################?????????\n:::::::::::################################################################################?????????\n:::::::::::################################################################################?????????\n:::::::::::################################################################################?????????\n:::::::::::################################################################################?????????\n:::::::::::################################################################################?????????\n:::::::::::################################################################################?????????\n:::::::::::################################################################################?????????\n:::::::::::################################################################################?????????\n:::::::::::################################################################################?????????\n:::::::::::################################################################################?????????\n:::::::::::################################################################################?????????\n:::::::::::################################################################################?????????\n:::::::::::################################################################################?????????\n:::::::::::################################################################################?????????\n:::::::::::################################################################################?????????\n:::::::::::################################################################################?????????\n:::::::::::################################################################################?????????\n:::::::::::################################################################################?????????\n:::::::::::################################################################################?????????\n:::::::::::################################################################################?????????\n:::::::::::################################################################################?????????\n:::::::::::################################################################################?????????\n:::::::::::################################################################################?????????\n:::::::::::################################################################################?????????\n:::::::::::################################################################################?????????\n:::::::::::################################################################################?????????\n:::::::::::################################################################################?????????\n:::::::::::################################################################################?????????\n:::::::::::################################################################################?????????\n:::::::::::################################################################################?????????\n:::::::::::################################################################################?????????\n:::::::::::################################################################################?????????\n:::::::::::################################################################################?????????\n:::::::::::################################################################################?????????\n:::::::::::################################################################################?????????\n:::::::::::################################################################################?????????\n:::::::::::################################################################################?????????\n:::::::::::################################################################################?????????\n:::::::::::################################################################################?????????\n:::::::::::################################################################################?????????\n:::::::::::################################################################################?????????\n:::::::::::################################################################################?????????\n:::::::::::################################################################################?????????\n:::::::::::################################################################################?????????\n:::::::::::################################################################################?????????\n:::::::::::################################################################################?????????\n:::::::::::################################################################################?????????\n:::::::::::################################################################################?????????\n:::::::::::################################################################################?????????\n:::::::::::################################################################################?????????\n:::::::::::################################################################################?????????\n:::::::::::################################################################################?????????\n:::::::::::################################################################################?????????\n:::::::::::################################################################################?????????\n:::::::::::################################################################################?????????\n:::::::::::################################################################################?????????\n:::::::::::################################################################################?????????\n:::::::::::################################################################################?????????\n:::::::::::################################################################################?????????\n:::::::::::################################################################################?????????\n:::::::::::################################################################################?????????\n:::::::::::################################################################################?????????\n:::::::::::################################################################################?????????\n:::::::::::################################################################################?????????\n:::::::::::################################################################################?????????\n:::::::::::################################################################################?????????\n:::::::::::################################################################################?????????\n:::::::::::################################################################################?????????\n:::::::::::################################################################################?????????\n:::::::::::################################################################################?????????\n:::::::::::################################################################################?????????\n:::::::::::################################################################################?????????\n:::::::::::################################################################################?????????\n:::::::::::################################################################################?????????\n:::::::::::################################################################################?????????\n:::::::::::################################################################################?????????\n:::::::::::################################################################################?????????\n:::::::::::################################################################################?????????\n:::::::::::################################################################################?????????\n:::::::::::################################################################################?????????\n:::::::::::################################################################################?????????\n:::::::::::################################################################################?????????\n:::::::::::################################################################################?????????\n:::::::::::################################################################################?????????\n:::::::::::################################################################################?????????\n:::::::::::################################################################################?????????\n:::::::::::################################################################################?????????\n:::::::::::################################################################################?????????\n:::::::::::################################################################################?????????\n:::::::::::################################################################################?????????\n:::::::::::################################################################################?????????\n:::::::::::################################################################################?????????\n:::::::::::################################################################################?????????\n:::::::::::################################################################################?????????\n:::::::::::################################################################################?????????\n:::::::::::################################################################################?????????\n:::::::::::################################################################################?????????\n:::::::::::################################################################################?????????\n:::::::::::################################################################################?????????\n:::::::::::################################################################################?????????\n:::::::::::################################################################################?????????\n:::::::::::################################################################################?????????\n:::::::::::################################################################################?????????\n:::::::::::################################################################################?????????\n:::::::::::################################################################################?????????\n:::::::::::################################################################################?????????\n:::::::::::################################################################################?????????\n:::::::::::################################################################################?????????\n:::::::::::################################################################################?????????\n:::::::::::################################################################################?????????\n:::::::::::################################################################################?????????\n:::::::::::################################################################################?????????\n:::::::::::################################################################################?????????\n:::::::::::################################################################################?????????\n:::::::::::################################################################################?????????\n:::::::::::################################################################################?????????\n:::::::::::################################################################################?????????\n:::::::::::################################################################################?????????\n:::::::::::################################################################################?????????\n:::::::::::################################################################################?????????\n:::::::::::################################################################################?????????\n:::::::::::################################################################################?????????\n:::::::::::################################################################################?????????\n:::::::::::################################################################################?????????\n:::::::::::################################################################################?????????\n:::::::::::################################################################################?????????\n:::::::::::################################################################################?????????\n:::::::::::################################################################################?????????\n:::::::::::################################################################################?????????\n:::::::::::################################################################################?????????\n:::::::::::################################################################################?????????\n:::::::::::################################################################################?????????\n:::::::::::################################################################################?????????\n:::::::::::################################################################################?????????\n:::::::::::################################################################################?????????\n:::::::::::################################################################################?????????\n:::::::::::################################################################################?????????\n:::::::::::################################################################################?????????\n:::::::::::################################################################################?????????\n:::::::::::################################################################################?????????\n:::::::::::################################################################################?????????\n:::::::::::################################################################################?????????\n:::::::::::################################################################################?????????\n:::::::::::################################################################################?????????\n:::::::::::################################################################################?????????\n:::::::::::################################################################################?????????\n:::::::::::################################################################################?????????\n:::::::::::################################################################################?????????\n:::::::::::################################################################################?????????\n:::::::::::################################################################################?????????\n:::::::::::################################################################################?????????\n:::::::::::################################################################################?????????\n:::::::::::################################################################################?????????\n:::::::::::################################################################################?????????\n:::::::::::################################################################################?????????\n:::::::::::################################################################################?????????\n:::::::::::################################################################################?????????\n:::::::::::################################################################################?????????\n:::::::::::################################################################################?????????\n:::::::::::################################################################################?????????\n:::::::::::################################################################################?????????\n:::::::::::################################################################################?????????\n:::::::::::################################################################################?????????\n:::::::::::################################################################################?????????\n:::::::::::################################################################################?????????\n:::::::::::################################################################################?????????\n:::::::::::################################################################################?????????\n:::::::::::################################################################################?????????\n:::::::::::################################################################################?????????\n:::::::::::################################################################################?????????\n:::::::::::################################################################################?????????\n:::::::::::################################################################################?????????\n:::::::::::################################################################################?????????\n:::::::::::################################################################################?????????\n:::::::::::################################################################################?????????\n:::::::::::################################################################################?????????\n:::::::::::################################################################################?????????\n:::::::::::################################################################################?????????\n:::::::::::################################################################################?????????\n:::::::::::################################################################################?????????\n:::::::::::################################################################################?????????\n:::::::::::################################################################################?????????\n:::::::::::################################################################################?????????\n:::::::::::################################################################################?????????\n:::::::::::################################################################################?????????\n:::::::::::################################################################################?????????\n:::::::::::################################################################################?????????\n:::::::::::################################################################################?????????\n:::::::::::################################################################################?????????\n:::::::::::################################################################################?????????\n:::::::::::################################################################################?????????\n:::::::::::################################################################################?????????\n:::::::::::################################################################################?????????\n:::::::::::################################################################################?????????\n:::::::::::################################################################################?????????\n:::::::::::################################################################################?????????\n:::::::::::################################################################################?????????\n:::::::::::################################################################################?????????\n:::::::::::################################################################################?????????\n:::::::::::################################################################################?????????\n:::::::::::################################################################################?????????\n:::::::::::################################################################################?????????\n:::::::::::################################################################################?????????\n:::::::::::################################################################################?????????\n:::::::::::################################################################################?????????\n:::::::::::################################################################################?????????\n:::::::::::################################################################################?????????\n:::::::::::################################################################################?????????\n:::::::::::################################################################################?????????\n:::::::::::################################################################################?????????\n:::::::::::################################################################################?????????\n:::::::::::################################################################################?????????\n:::::::::::################################################################################?????????\n:::::::::::################################################################################?????????\n:::::::::::################################################################################?????????\n:::::::::::################################################################################?????????\n:::::::::::################################################################################?????????\n:::::::::::################################################################################?????????\n:::::::::::################################################################################?????????\n:::::::::::################################################################################?????????\n:::::::::::################################################################################?????????\n:::::::::::################################################################################?????????\n:::::::::::################################################################################?????????\n:::::::::::################################################################################?????????\n:::::::::::################################################################################?????????\n:::::::::::################################################################################?????????\n:::::::::::################################################################################?????????\n:::::::::::################################################################################?????????\n:::::::::::################################################################################?????????\n:::::::::::################################################################################?????????\n:::::::::::################################################################################?????????\n:::::::::::################################################################################?????????\n:::::::::::################################################################################?????????\n:::::::::::################################################################################?????????\n:::::::::::################################################################################?????????\n:::::::::::################################################################################?????????\n:::::::::::################################################################################?????????\n:::::::::::################################################################################?????????\n:::::::::::################################################################################?????????\n:::::::::::################################################################################?????????\n:::::::::::################################################################################?????????\n:::::::::::################################################################################?????????\n:::::::::::################################################################################?????????\n:::::::::::################################################################################?????????\n:::::::::::################################################################################?????????\n:::::::::::################################################################################?????????\n:::::::::::################################################################################?????????\n:::::::::::################################################################################?????????\n:::::::::::################################################################################?????????\n:::::::::::################################################################################?????????\n:::::::::::################################################################################?????????\n:::::::::::################################################################################?????????\n:::::::::::################################################################################?????????\n:::::::::::################################################################################?????????\n:::::::::::################################################################################?????????\n:::::::::::################################################################################?????????\n:::::::::::################################################################################?????????\n:::::::::::################################################################################?????????\n:::::::::::################################################################################?????????\n:::::::::::################################################################################?????????\n:::::::::::################################################################################?????????\n:::::::::::################################################################################?????????\n:::::::::::################################################################################?????????\n:::::::::::################################################################################?????????\n:::::::::::################################################################################?????????\n:::::::::::################################################################################?????????\n:::::::::::################################################################################?????????\n:::::::::::################################################################################?????????\n:::::::::::################################################################################?????????\n:::::::::::################################################################################?????????\n:::::::::::################################################################################?????????\n:::::::::::################################################################################?????????\n:::::::::::################################################################################?????????\n:::::::::::################################################################################?????????\n:::::::::::################################################################################?????????\n:::::::::::################################################################################?????????\n:::::::::::################################################################################?????????\n:::::::::::################################################################################?????????\n:::::::::::################################################################################?????????\n:::::::::::################################################################################?????????\n:::::::::::################################################################################?????????\n:::::::::::################################################################################?????????\n:::::::::::################################################################################?????????\n:::::::::::################################################################################?????????\n:::::::::::################################################################################?????????\n:::::::::::################################################################################?????????\n:::::::::::################################################################################?????????\n:::::::::::################################################################################?????????\n:::::::::::################################################################################?????????\n:::::::::::################################################################################?????????\n:::::::::::################################################################################?????????\n:::::::::::################################################################################?????????\n:::::::::::################################################################################?????????\n:::::::::::################################################################################?????????\n:::::::::::################################################################################?????????\n:::::::::::################################################################################?????????\n:::::::::::################################################################################?????????\n:::::::::::################################################################################?????????\n:::::::::::################################################################################?????????\n:::::::::::################################################################################?????????\n:::::::::::################################################################################?????????\n:::::::::::################################################################################?????????\n:::::::::::################################################################################?????????\n:::::::::::################################################################################?????????\n:::::::::::################################################################################?????????\n:::::::::::################################################################################?????????\n:::::::::::################################################################################?????????\n:::::::::::################################################################################?????????\n:::::::::::################################################################################?????????\n:::::::::::################################################################################?????????\n:::::::::::################################################################################?????????\n:::::::::::################################################################################?????????\n:::::::::::################################################################################?????????\n:::::::::::################################################################################?????????\n:::::::::::################################################################################?????????\n:::::::::::################################################################################?????????\n:::::::::::################################################################################?????????\n:::::::::::################################################################################?????????\n:::::::::::################################################################################?????????\n:::::::::::################################################################################?????????\n:::::::::::################################################################################?????????\n:::::::::::################################################################################?????????\n:::::::::::################################################################################?????????\n:::::::::::################################################################################?????????\n:::::::::::################################################################################?????????\n:::::::::::################################################################################?????????\n:::::::::::################################################################################?????????\n:::::::::::################################################################################?????????\n:::::::::::################################################################################?????????\n:::::::::::################################################################################?????????\n:::::::::::################################################################################?????????\n:::::::::::################################################################################?????????\n:::::::::::################################################################################?????????\n:::::::::::################################################################################?????????\n:::::::::::################################################################################?????????\n:::::::::::################################################################################?????????\n:::::::::::################################################################################?????????\n:::::::::::################################################################################?????????\n:::::::::::################################################################################?????????\n:::::::::::################################################################################?????????\n:::::::::::################################################################################?????????\n:::::::::::################################################################################?????????\n:::::::::::################################################################################?????????\n:::::::::::################################################################################?????????\n:::::::::::################################################################################?????????\n:::::::::::################################################################################?????????\n:::::::::::################################################################################?????????\n:::::::::::################################################################################?????????\n:::::::::::################################################################################?????????\n:::::::::::################################################################################?????????\n:::::::::::################################################################################?????????\n:::::::::::################################################################################?????????\n:::::::::::################################################################################?????????\n:::::::::::################################################################################?????????\n:::::::::::################################################################################?????????\n:::::::::::################################################################################?????????\n:::::::::::################################################################################?????????\n:::::::::::################################################################################?????????\n:::::::::::################################################################################?????????\n:::::::::::################################################################################?????????\n:::::::::::################################################################################?????????\n:::::::::::################################################################################?????????\n:::::::::::################################################################################?????????\n:::::::::::################################################################################?????????\n:::::::::::################################################################################?????????\n:::::::::::################################################################################?????????\n:::::::::::################################################################################?????????\n:::::::::::################################################################################?????????\n:::::::::::################################################################################?????????\n:::::::::::################################################################################?????????\n:::::::::::################################################################################?????????\n:::::::::::################################################################################?????????\n:::::::::::################################################################################?????????\n:::::::::::################################################################################?????????\n:::::::::::################################################################################?????????\n:::::::::::################################################################################?????????\n:::::::::::################################################################################?????????\n:::::::::::################################################################################?????????\n:::::::::::################################################################################?????????\n:::::::::::################################################################################?????????\n:::::::::::################################################################################?????????\n:::::::::::################################################################################?????????\n:::::::::::################################################################################?????????\n:::::::::::################################################################################?????????\n:::::::::::################################################################################?????????\n:::::::::::################################################################################?????????\n:::::::::::################################################################################?????????\n:::::::::::################################################################################?????????\n:::::::::::################################################################################?????????\n:::::::::::################################################################################?????????\n:::::::::::################################################################################?????????\n:::::::::::################################################################################?????????\n:::::::::::################################################################################?????????\n:::::::::::################################################################################?????????\n:::::::::::################################################################################?????????\n:::::::::::################################################################################?????????\n:::::::::::################################################################################?????????\n:::::::::::################################################################################?????????\n:::::::::::################################################################################?????????\n:::::::::::################################################################################?????????\n:::::::::::################################################################################?????????\n:::::::::::################################################################################?????????\n:::::::::::################################################################################?????????\n:::::::::::################################################################################?????????\n:::::::::::################################################################################?????????\n:::::::::::################################################################################?????????\n:::::::::::################################################################################?????????\n:::::::::::################################################################################?????????\n:::::::::::################################################################################?????????\n:::::::::::################################################################################?????????\n:::::::::::################################################################################?????????\n:::::::::::################################################################################?????????\n:::::::::::################################################################################?????????\n:::::::::::################################################################################?????????\n:::::::::::################################################################################?????????\n:::::::::::################################################################################?????????\n:::::::::::################################################################################?????????\n:::::::::::################################################################################?????????\n:::::::::::################################################################################?????????\n:::::::::::################################################################################?????????\n:::::::::::################################################################################?????????\n:::::::::::################################################################################?????????\n:::::::::::################################################################################?????????\n:::::::::::################################################################################?????????\n:::::::::::################################################################################?????????\n:::::::::::################################################################################?????????\n:::::::::::################################################################################?????????\n:::::::::::################################################################################?????????\n:::::::::::################################################################################?????????\n:::::::::::################################################################################?????????\n:::::::::::################################################################################?????????\n:::::::::::################################################################################?????????\n:::::::::::################################################################################?????????\n:::::::::::################################################################################?????????\n:::::::::::################################################################################?????????\n:::::::::::################################################################################?????????\n:::::::::::################################################################################?????????\n:::::::::::################################################################################?????????\n:::::::::::################################################################################?????????\n:::::::::::################################################################################?????????\n:::::::::::################################################################################?????????\n:::::::::::################################################################################?????????\n:::::::::::################################################################################?????????\n:::::::::::################################################################################?????????\n:::::::::::################################################################################?????????\n:::::::::::################################################################################?????????\n:::::::::::################################################################################?????????\n:::::::::::################################################################################?????????\n:::::::::::################################################################################?????????\n:::::::::::################################################################################?????????\n:::::::::::################################################################################?????????\n:::::::::::################################################################################?????????\n:::::::::::################################################################################?????????\n:::::::::::################################################################################?????????\n:::::::::::################################################################################?????????\n:::::::::::################################################################################?????????'
p11
aS'I'
p12
aa(lp13
S'@@@@@@@@@@@@@@@@@@@@@@@@@@@@@@@@@@@@@@@@@@@,::***.....***:,,@@@@@@@@@@@@@@@@@@@@@@@@@@@@@@@@@@@@@@@@\n@@@@@@@@@@@@@@@@@@@@@@@@@@@@@@@@@@@@@@@@@@@,::***.....***:,,@@@@@@@@@@@@@@@@@@@@@@@@@@@@@@@@@@@@@@@@\n@@@@@@@@@@@@@@@@@@@@@@@@@@@@@@@@@@,**+..?####################??...:@@@@@@@@@@@@@@@@@@@@@@@@@@@@@@@@@\n@@@@@@@@@@@@@@@@@@@@@@@@@@@@@@@@@@,**+..?####################??...:@@@@@@@@@@@@@@@@@@@@@@@@@@@@@@@@@\n@@@@@@@@@@@@@@@@@@@@@@@@@@@@@,,...#################################??S**@@@@@@@@@@@@@@@@@@@@@@@@@@@@\n@@@@@@@@@@@@@@@@@@@@@@@@@@::.###########################################?++,@@@@@@@@@@@@@@@@@@@@@@@@\n@@@@@@@@@@@@@@@@@@@@@@@@@@::.###########################################?++,@@@@@@@@@@@@@@@@@@@@@@@@\n@@@@@@@@@@@@@@@@@@@@@@@::%##################################################++,@@@@@@@@@@@@@@@@@@@@@\n@@@@@@@@@@@@@@@@@@@@,,S#######################################################?..@@@@@@@@@@@@@@@@@@@\n@@@@@@@@@@@@@@@@@@@@,,S#######################################################?..@@@@@@@@@@@@@@@@@@@\n@@@@@@@@@@@@@@@@@@@*??###########################################################.,,@@@@@@@@@@@@@@@@\n@@@@@@@@@@@@@@@@@++###############################################################??:@@@@@@@@@@@@@@@\n@@@@@@@@@@@@@@@@@++###############################################################??:@@@@@@@@@@@@@@@\n@@@@@@@@@@@@@@@@S#######################%SS.**:,,,@@,,,::*++.??######################**@@@@@@@@@@@@@\n@@@@@@@@@@@@@@..###################%%.,,@@@@@@@@@@@@@@@@@@@@@@@:SS?####################*@@@@@@@@@@@@\n@@@@@@@@@@@@@@..###################%%.,,@@@@@@@@@@@@@@@@@@@@@@@:SS?####################*@@@@@@@@@@@@\n@@@@@@@@@@@@@S##################..:@@@@@@@@@@@@@@@@@@@@@@@@@@@@@@@@..?##################::@@@@@@@@@@\n@@@@@@@@@@@..################%%:@@@@@@@@@@@@@@@@@@@@@@@@@@@@@@@@@@@@@@++################??,@@@@@@@@@\n@@@@@@@@@@@..################%%:@@@@@@@@@@@@@@@@@@@@@@@@@@@@@@@@@@@@@@++################??,@@@@@@@@@\n@@@@@@@@@@:#################+@@@@@@@@@@@@@@@@@@@@@@@@@@@@@@@@@@@@@@@@@@@:??###############%@@@@@@@@@\n@@@@@@@@,,?###############..@@@@@@@@@@@@@@@@@@@@@@@@@@@@@@@@@@@@@@@@@@@@@,,%###############++@@@@@@@\n@@@@@@@@,,?###############..@@@@@@@@@@@@@@@@@@@@@@@@@@@@@@@@@@@@@@@@@@@@@,,%###############++@@@@@@@\n@@@@@@@@SS###############*@@@@@@@@@@@@@@@@@@@@@@@@@@@@@@@@@@@@@@@@@@@@@@@@@,%%###############:@@@@@@\n@@@@@@@,###############..@@@@@@@@@@@@@@@@@@@@@@@@@@@@@@@@@@@@@@@@@@@@@@@@@@@,,?##############.@@@@@@\n@@@@@@@,###############..@@@@@@@@@@@@@@@@@@@@@@@@@@@@@@@@@@@@@@@@@@@@@@@@@@@,,?##############.@@@@@@\n@@@@@@@S##############S@@@@@@@@@@@@@@@@@@@@@@@@@@@@@@@@@@@@@@@@@@@@@@@@@@@@@@@:###############::@@@@\n@@@@@,,#############??,@@@@@@@@@@@@@@@@@@@@@@@@@@@@@@@@@@@@@@@@@@@@@@@@@@@@@@@@++#############..@@@@\n@@@@@,,#############??,@@@@@@@@@@@@@@@@@@@@@@@@@@@@@@@@@@@@@@@@@@@@@@@@@@@@@@@@++#############..@@@@\n@@@@@++#############..@@@@@@@@@@@@@@@@@@@@@@@@@@@@@@@@@@@@@@@@@@@@@@@@@@@@@@@@@@@?##############,@@@\n@@@@@??############%@@@@@@@@@@@@@@@@@@@@@@@@@@@@@@@@@@@@@@@@@@@@@@@@@@@@@@@@@@@@@*##############+@@@\n@@@@@??############%@@@@@@@@@@@@@@@@@@@@@@@@@@@@@@@@@@@@@@@@@@@@@@@@@@@@@@@@@@@@@*##############+@@@\n@@@@*##############*@@@@@@@@@@@@@@@@@@@@@@@@@@@@@@@@@@@@@@@@@@@@@@@@@@@@@@@@@@@@@@??############?@@@\n@@@@S############??@@@@@@@@@@@@@@@@@@@@@@@@@@@@@@@@@@@@@@@@@@@@@@@@@@@@@@@@@@@@@@@..#############::@\n@@@@S############??@@@@@@@@@@@@@@@@@@@@@@@@@@@@@@@@@@@@@@@@@@@@@@@@@@@@@@@@@@@@@@@..#############::@\n@@@@?############++@@@@@@@@@@@@@@@@@@@@@@@@@@@@@@@@@@@@@@@@@@@@@@@@@@@@@@@@@@@@@@@,,#############++@\n@@::#############::@@@@@@@@@@@@@@@@@@@@@@@@@@@@@@@@@@@@@@@@@@@@@@@@@@@@@@@@@@@@@@@@@.############%%@\n@@::#############::@@@@@@@@@@@@@@@@@@@@@@@@@@@@@@@@@@@@@@@@@@@@@@@@@@@@@@@@@@@@@@@@@.############%%@\n@@..############?@@@@@@@@@@@@@@@@@@@@@@@@@@@@@@@@@@@@@@@@@@@@@@@@@@@@@@@@@@@@@@@@@@@.##############,\n@@SS############.@@@@@@@@@@@@@@@@@@@@@@@@@@@@@@@@@@@@@@@@@@@@@@@@@@@@@@@@@@@@@@@@@@@,##############:\n@@SS############.@@@@@@@@@@@@@@@@@@@@@@@@@@@@@@@@@@@@@@@@@@@@@@@@@@@@@@@@@@@@@@@@@@@,##############:\n@@%%############.@@@@@@@@@@@@@@@@@@@@@@@@@@@@@@@@@@@@@@@@@@@@@@@@@@@@@@@@@@@@@@@@@@@@??############.\n@@##############*@@@@@@@@@@@@@@@@@@@@@@@@@@@@@@@@@@@@@@@@@@@@@@@@@@@@@@@@@@@@@@@@@@@@..############S\n@@##############*@@@@@@@@@@@@@@@@@@@@@@@@@@@@@@@@@@@@@@@@@@@@@@@@@@@@@@@@@@@@@@@@@@@@..############S\n,,##############,@@@@@@@@@@@@@@@@@@@@@@@@@@@@@@@@@@@@@@@@@@@@@@@@@@@@@@@@@@@@@@@@@@@@++############.\n::##############@@@@@@@@@@@@@@@@@@@@@@@@@@@@@@@@@@@@@@@@@@@@@@@@@@@@@@@@@@@@@@@@@@@@@..############%\n::##############@@@@@@@@@@@@@@@@@@@@@@@@@@@@@@@@@@@@@@@@@@@@@@@@@@@@@@@@@@@@@@@@@@@@@..############%\n**############??@@@@@@@@@@@@@@@@@@@@@@@@@@@@@@@@@@@@@@@@@@@@@@@@@@@@@@@@@@@@@@@@@@@@@**#############\n..############%%@@@@@@@@@@@@@@@@@@@@@@@@@@@@@@@@@@@@@@@@@@@@@@@@@@@@@@@@@@@@@@@@@@@@@::#############\n..############%%@@@@@@@@@@@@@@@@@@@@@@@@@@@@@@@@@@@@@@@@@@@@@@@@@@@@@@@@@@@@@@@@@@@@@::#############\n..############..@@@@@@@@@@@@@@@@@@@@@@@@@@@@@@@@@@@@@@@@@@@@@@@@@@@@@@@@@@@@@@@@@@@@@::#############\n++############..@@@@@@@@@@@@@@@@@@@@@@@@@@@@@@@@@@@@@@@@@@@@@@@@@@@@@@@@@@@@@@@@@@@@@,,#############\n++############..@@@@@@@@@@@@@@@@@@@@@@@@@@@@@@@@@@@@@@@@@@@@@@@@@@@@@@@@@@@@@@@@@@@@@,,#############\n++############..@@@@@@@@@@@@@@@@@@@@@@@@@@@@@@@@@@@@@@@@@@@@@@@@@@@@@@@@@@@@@@@@@@@@@,,#############\n++############..@@@@@@@@@@@@@@@@@@@@@@@@@@@@@@@@@@@@@@@@@@@@@@@@@@@@@@@@@@@@@@@@@@@@@,,#############\n++############..@@@@@@@@@@@@@@@@@@@@@@@@@@@@@@@@@@@@@@@@@@@@@@@@@@@@@@@@@@@@@@@@@@@@@,,#############\n..############..@@@@@@@@@@@@@@@@@@@@@@@@@@@@@@@@@@@@@@@@@@@@@@@@@@@@@@@@@@@@@@@@@@@@@::#############\n..############%%@@@@@@@@@@@@@@@@@@@@@@@@@@@@@@@@@@@@@@@@@@@@@@@@@@@@@@@@@@@@@@@@@@@@@::#############\n..############%%@@@@@@@@@@@@@@@@@@@@@@@@@@@@@@@@@@@@@@@@@@@@@@@@@@@@@@@@@@@@@@@@@@@@@::#############\n**############??@@@@@@@@@@@@@@@@@@@@@@@@@@@@@@@@@@@@@@@@@@@@@@@@@@@@@@@@@@@@@@@@@@@@@**#############\n::##############@@@@@@@@@@@@@@@@@@@@@@@@@@@@@@@@@@@@@@@@@@@@@@@@@@@@@@@@@@@@@@@@@@@@@..############%\n::##############@@@@@@@@@@@@@@@@@@@@@@@@@@@@@@@@@@@@@@@@@@@@@@@@@@@@@@@@@@@@@@@@@@@@@..############%\n,,##############,@@@@@@@@@@@@@@@@@@@@@@@@@@@@@@@@@@@@@@@@@@@@@@@@@@@@@@@@@@@@@@@@@@@@++############.\n@@##############*@@@@@@@@@@@@@@@@@@@@@@@@@@@@@@@@@@@@@@@@@@@@@@@@@@@@@@@@@@@@@@@@@@@@..############S\n@@##############*@@@@@@@@@@@@@@@@@@@@@@@@@@@@@@@@@@@@@@@@@@@@@@@@@@@@@@@@@@@@@@@@@@@@..############S\n@@%%############.@@@@@@@@@@@@@@@@@@@@@@@@@@@@@@@@@@@@@@@@@@@@@@@@@@@@@@@@@@@@@@@@@@@@%%############.\n@@SS############.@@@@@@@@@@@@@@@@@@@@@@@@@@@@@@@@@@@@@@@@@@@@@@@@@@@@@@@@@@@@@@@@@@@,##############:\n@@SS############.@@@@@@@@@@@@@@@@@@@@@@@@@@@@@@@@@@@@@@@@@@@@@@@@@@@@@@@@@@@@@@@@@@@,##############:\n@@++############?@@@@@@@@@@@@@@@@@@@@@@@@@@@@@@@@@@@@@@@@@@@@@@@@@@@@@@@@@@@@@@@@@@@*##############,\n@@::#############::@@@@@@@@@@@@@@@@@@@@@@@@@@@@@@@@@@@@@@@@@@@@@@@@@@@@@@@@@@@@@@@@@+############%%@\n@@::#############::@@@@@@@@@@@@@@@@@@@@@@@@@@@@@@@@@@@@@@@@@@@@@@@@@@@@@@@@@@@@@@@@@+############%%@\n@@@@#############++@@@@@@@@@@@@@@@@@@@@@@@@@@@@@@@@@@@@@@@@@@@@@@@@@@@@@@@@@@@@@@@@@%############++@\n@@@@.############??@@@@@@@@@@@@@@@@@@@@@@@@@@@@@@@@@@@@@@@@@@@@@@@@@@@@@@@@@@@@@@@::#############::@\n@@@@.############??@@@@@@@@@@@@@@@@@@@@@@@@@@@@@@@@@@@@@@@@@@@@@@@@@@@@@@@@@@@@@@@::#############::@\n@@@@.##############*@@@@@@@@@@@@@@@@@@@@@@@@@@@@@@@@@@@@@@@@@@@@@@@@@@@@@@@@@@@@@@SS############?@@@\n@@@@,##############%@@@@@@@@@@@@@@@@@@@@@@@@@@@@@@@@@@@@@@@@@@@@@@@@@@@@@@@@@@@@@,##############S@@@\n@@@@,##############%@@@@@@@@@@@@@@@@@@@@@@@@@@@@@@@@@@@@@@@@@@@@@@@@@@@@@@@@@@@@@,##############S@@@\n@@@@@SS#############**@@@@@@@@@@@@@@@@@@@@@@@@@@@@@@@@@@@@@@@@@@@@@@@@@@@@@@@@@@@+##############:@@@\n@@@@@::#############??@@@@@@@@@@@@@@@@@@@@@@@@@@@@@@@@@@@@@@@@@@@@@@@@@@@@@@@@@,,#############..@@@@\n@@@@@::#############??@@@@@@@@@@@@@@@@@@@@@@@@@@@@@@@@@@@@@@@@@@@@@@@@@@@@@@@@@,,#############..@@@@\n@@@@@@@.##############+@@@@@@@@@@@@@@@@@@@@@@@@@@@@@@@@@@@@@@@@@@@@@@@@@@@@@@@@..#############**@@@@\n@@@@@@@:###############**@@@@@@@@@@@@@@@@@@@@@@@@@@@@@@@@@@@@@@@@@@@@@@@@@@@@@.##############.@@@@@@\n@@@@@@@:###############**@@@@@@@@@@@@@@@@@@@@@@@@@@@@@@@@@@@@@@@@@@@@@@@@@@@@@.##############.@@@@@@\n@@@@@@@@..#############??:@@@@@@@@@@@@@@@@@@@@@@@@@@@@@@@@@@@@@@@@@@@@@@@@@@::###############:@@@@@@\n@@@@@@@@,,###############?,,@@@@@@@@@@@@@@@@@@@@@@@@@@@@@@@@@@@@@@@@@@@@@@@:###############SS@@@@@@@\n@@@@@@@@,,###############?,,@@@@@@@@@@@@@@@@@@@@@@@@@@@@@@@@@@@@@@@@@@@@@@@:###############SS@@@@@@@\n@@@@@@@@@@.###############??:@@@@@@@@@@@@@@@@@@@@@@@@@@@@@@@@@@@@@@@@@@@@::###############?,,@@@@@@@\n@@@@@@@@@@@..################..@@@@@@@@@@@@@@@@@@@@@@@@@@@@@@@@@@@@@@@@@.#################:@@@@@@@@@\n@@@@@@@@@@@..################..@@@@@@@@@@@@@@@@@@@@@@@@@@@@@@@@@@@@@@@@@.#################:@@@@@@@@@\n@@@@@@@@@@@,,?#################.::@@@@@@@@@@@@@@@@@@@@@@@@@@@@@@@@@@@:%%################**@@@@@@@@@@\n@@@@@@@@@@@@@:??##################S::@@@@@@@@@@@@@@@@@@@@@@@@@@@@@:..##################+@@@@@@@@@@@@\n@@@@@@@@@@@@@:??##################S::@@@@@@@@@@@@@@@@@@@@@@@@@@@@@:..##################+@@@@@@@@@@@@\n@@@@@@@@@@@@@@::?####################%..:@@@@@@@@@@@@@@@@@@@@::+%%###################++@@@@@@@@@@@@@\n@@@@@@@@@@@@@@@@:??######################??%SS+........++S%%########################.@@@@@@@@@@@@@@@\n@@@@@@@@@@@@@@@@:??######################??%SS+........++S%%########################.@@@@@@@@@@@@@@@\n@@@@@@@@@@@@@@@@@,,.#############################################################?**@@@@@@@@@@@@@@@@\n@@@@@@@@@@@@@@@@@@@@++#########################################################..,@@@@@@@@@@@@@@@@@@\n@@@@@@@@@@@@@@@@@@@@++#########################################################..,@@@@@@@@@@@@@@@@@@\n@@@@@@@@@@@@@@@@@@@@@@,..###################################################??*@@@@@@@@@@@@@@@@@@@@@\n@@@@@@@@@@@@@@@@@@@@@@@@@*%%#############################################??+,,@@@@@@@@@@@@@@@@@@@@@@\n@@@@@@@@@@@@@@@@@@@@@@@@@*%%#############################################??+,,@@@@@@@@@@@@@@@@@@@@@@\n@@@@@@@@@@@@@@@@@@@@@@@@@@@@:..#######################################%%.@@@@@@@@@@@@@@@@@@@@@@@@@@@\n@@@@@@@@@@@@@@@@@@@@@@@@@@@@@@@,...??#############################%++,@@@@@@@@@@@@@@@@@@@@@@@@@@@@@@\n@@@@@@@@@@@@@@@@@@@@@@@@@@@@@@@,...??#############################%++,@@@@@@@@@@@@@@@@@@@@@@@@@@@@@@\n@@@@@@@@@@@@@@@@@@@@@@@@@@@@@@@@@@@@@,..+SS%???########??%..S..:@@@@@@@@@@@@@@@@@@@@@@@@@@@@@@@@@@@@'
p14
aS'O'
p15
aa(lp16
S'**+++++++++++++++::@@@@@@@@@@@@@@@@@@@@@@@@@@@@@@@@@@@@@@@@@@@@@@@@@@@@@@@@@@@@@@@@@++++++++++++++++\n**+++++++++++++++::@@@@@@@@@@@@@@@@@@@@@@@@@@@@@@@@@@@@@@@@@@@@@@@@@@@@@@@@@@@@@@@@@++++++++++++++++\nSS###############..@@@@@@@@@@@@@@@@@@@@@@@@@@@@@@@@@@@@@@@@@@@@@@@@@@@@@@@@@@@@@@@@@################\nSS###############..@@@@@@@@@@@@@@@@@@@@@@@@@@@@@@@@@@@@@@@@@@@@@@@@@@@@@@@@@@@@@@@@@################\nSS###############..@@@@@@@@@@@@@@@@@@@@@@@@@@@@@@@@@@@@@@@@@@@@@@@@@@@@@@@@@@@@@@@@@################\nSS###############..@@@@@@@@@@@@@@@@@@@@@@@@@@@@@@@@@@@@@@@@@@@@@@@@@@@@@@@@@@@@@@@@@################\nSS###############..@@@@@@@@@@@@@@@@@@@@@@@@@@@@@@@@@@@@@@@@@@@@@@@@@@@@@@@@@@@@@@@@@################\nSS###############..@@@@@@@@@@@@@@@@@@@@@@@@@@@@@@@@@@@@@@@@@@@@@@@@@@@@@@@@@@@@@@@@@################\nSS###############..@@@@@@@@@@@@@@@@@@@@@@@@@@@@@@@@@@@@@@@@@@@@@@@@@@@@@@@@@@@@@@@@@################\nSS###############..@@@@@@@@@@@@@@@@@@@@@@@@@@@@@@@@@@@@@@@@@@@@@@@@@@@@@@@@@@@@@@@@@################\nSS###############..@@@@@@@@@@@@@@@@@@@@@@@@@@@@@@@@@@@@@@@@@@@@@@@@@@@@@@@@@@@@@@@@@################\nSS###############..@@@@@@@@@@@@@@@@@@@@@@@@@@@@@@@@@@@@@@@@@@@@@@@@@@@@@@@@@@@@@@@@@################\nSS###############..@@@@@@@@@@@@@@@@@@@@@@@@@@@@@@@@@@@@@@@@@@@@@@@@@@@@@@@@@@@@@@@@@################\nSS###############..@@@@@@@@@@@@@@@@@@@@@@@@@@@@@@@@@@@@@@@@@@@@@@@@@@@@@@@@@@@@@@@@@################\nSS###############..@@@@@@@@@@@@@@@@@@@@@@@@@@@@@@@@@@@@@@@@@@@@@@@@@@@@@@@@@@@@@@@@@################\nSS###############..@@@@@@@@@@@@@@@@@@@@@@@@@@@@@@@@@@@@@@@@@@@@@@@@@@@@@@@@@@@@@@@@@################\nSS###############..@@@@@@@@@@@@@@@@@@@@@@@@@@@@@@@@@@@@@@@@@@@@@@@@@@@@@@@@@@@@@@@@@################\nSS###############..@@@@@@@@@@@@@@@@@@@@@@@@@@@@@@@@@@@@@@@@@@@@@@@@@@@@@@@@@@@@@@@@@################\nSS###############..@@@@@@@@@@@@@@@@@@@@@@@@@@@@@@@@@@@@@@@@@@@@@@@@@@@@@@@@@@@@@@@@@################\nSS###############..@@@@@@@@@@@@@@@@@@@@@@@@@@@@@@@@@@@@@@@@@@@@@@@@@@@@@@@@@@@@@@@@@################\nSS###############..@@@@@@@@@@@@@@@@@@@@@@@@@@@@@@@@@@@@@@@@@@@@@@@@@@@@@@@@@@@@@@@@@################\nSS###############..@@@@@@@@@@@@@@@@@@@@@@@@@@@@@@@@@@@@@@@@@@@@@@@@@@@@@@@@@@@@@@@@@################\nSS###############..@@@@@@@@@@@@@@@@@@@@@@@@@@@@@@@@@@@@@@@@@@@@@@@@@@@@@@@@@@@@@@@@@################\nSS###############..@@@@@@@@@@@@@@@@@@@@@@@@@@@@@@@@@@@@@@@@@@@@@@@@@@@@@@@@@@@@@@@@@################\nSS###############..@@@@@@@@@@@@@@@@@@@@@@@@@@@@@@@@@@@@@@@@@@@@@@@@@@@@@@@@@@@@@@@@@################\nSS###############..@@@@@@@@@@@@@@@@@@@@@@@@@@@@@@@@@@@@@@@@@@@@@@@@@@@@@@@@@@@@@@@@@################\nSS###############..@@@@@@@@@@@@@@@@@@@@@@@@@@@@@@@@@@@@@@@@@@@@@@@@@@@@@@@@@@@@@@@@@################\nSS###############..@@@@@@@@@@@@@@@@@@@@@@@@@@@@@@@@@@@@@@@@@@@@@@@@@@@@@@@@@@@@@@@@@################\nSS###############..@@@@@@@@@@@@@@@@@@@@@@@@@@@@@@@@@@@@@@@@@@@@@@@@@@@@@@@@@@@@@@@@@################\nSS###############..@@@@@@@@@@@@@@@@@@@@@@@@@@@@@@@@@@@@@@@@@@@@@@@@@@@@@@@@@@@@@@@@@################\nSS###############..@@@@@@@@@@@@@@@@@@@@@@@@@@@@@@@@@@@@@@@@@@@@@@@@@@@@@@@@@@@@@@@@@################\nSS###############..@@@@@@@@@@@@@@@@@@@@@@@@@@@@@@@@@@@@@@@@@@@@@@@@@@@@@@@@@@@@@@@@@################\nSS###############..@@@@@@@@@@@@@@@@@@@@@@@@@@@@@@@@@@@@@@@@@@@@@@@@@@@@@@@@@@@@@@@@@################\nSS###############..@@@@@@@@@@@@@@@@@@@@@@@@@@@@@@@@@@@@@@@@@@@@@@@@@@@@@@@@@@@@@@@@@################\nSS###############..@@@@@@@@@@@@@@@@@@@@@@@@@@@@@@@@@@@@@@@@@@@@@@@@@@@@@@@@@@@@@@@@@################\nSS###############..@@@@@@@@@@@@@@@@@@@@@@@@@@@@@@@@@@@@@@@@@@@@@@@@@@@@@@@@@@@@@@@@@################\nSS###############..@@@@@@@@@@@@@@@@@@@@@@@@@@@@@@@@@@@@@@@@@@@@@@@@@@@@@@@@@@@@@@@@@################\nSS###############..@@@@@@@@@@@@@@@@@@@@@@@@@@@@@@@@@@@@@@@@@@@@@@@@@@@@@@@@@@@@@@@@@################\nSS###############..@@@@@@@@@@@@@@@@@@@@@@@@@@@@@@@@@@@@@@@@@@@@@@@@@@@@@@@@@@@@@@@@@################\nSS###############..@@@@@@@@@@@@@@@@@@@@@@@@@@@@@@@@@@@@@@@@@@@@@@@@@@@@@@@@@@@@@@@@@################\nSS###############..@@@@@@@@@@@@@@@@@@@@@@@@@@@@@@@@@@@@@@@@@@@@@@@@@@@@@@@@@@@@@@@@@################\nSS###############..@@@@@@@@@@@@@@@@@@@@@@@@@@@@@@@@@@@@@@@@@@@@@@@@@@@@@@@@@@@@@@@@@################\nSS###############..@@@@@@@@@@@@@@@@@@@@@@@@@@@@@@@@@@@@@@@@@@@@@@@@@@@@@@@@@@@@@@@@@################\nSS###############..@@@@@@@@@@@@@@@@@@@@@@@@@@@@@@@@@@@@@@@@@@@@@@@@@@@@@@@@@@@@@@@@@################\nSS###############..@@@@@@@@@@@@@@@@@@@@@@@@@@@@@@@@@@@@@@@@@@@@@@@@@@@@@@@@@@@@@@@@@################\nSS###############..@@@@@@@@@@@@@@@@@@@@@@@@@@@@@@@@@@@@@@@@@@@@@@@@@@@@@@@@@@@@@@@@@################\nSS###############..@@@@@@@@@@@@@@@@@@@@@@@@@@@@@@@@@@@@@@@@@@@@@@@@@@@@@@@@@@@@@@@@@################\nSS###############..@@@@@@@@@@@@@@@@@@@@@@@@@@@@@@@@@@@@@@@@@@@@@@@@@@@@@@@@@@@@@@@@@################\nSS###############..@@@@@@@@@@@@@@@@@@@@@@@@@@@@@@@@@@@@@@@@@@@@@@@@@@@@@@@@@@@@@@@@@################\nSS###############..@@@@@@@@@@@@@@@@@@@@@@@@@@@@@@@@@@@@@@@@@@@@@@@@@@@@@@@@@@@@@@@@@################\nSS###############..@@@@@@@@@@@@@@@@@@@@@@@@@@@@@@@@@@@@@@@@@@@@@@@@@@@@@@@@@@@@@@@@@################\nSS###############..@@@@@@@@@@@@@@@@@@@@@@@@@@@@@@@@@@@@@@@@@@@@@@@@@@@@@@@@@@@@@@@@@################\nSS###############..@@@@@@@@@@@@@@@@@@@@@@@@@@@@@@@@@@@@@@@@@@@@@@@@@@@@@@@@@@@@@@@@@################\nSS###############..@@@@@@@@@@@@@@@@@@@@@@@@@@@@@@@@@@@@@@@@@@@@@@@@@@@@@@@@@@@@@@@@@################\nSS###############..@@@@@@@@@@@@@@@@@@@@@@@@@@@@@@@@@@@@@@@@@@@@@@@@@@@@@@@@@@@@@@@@@################\nSS###############..@@@@@@@@@@@@@@@@@@@@@@@@@@@@@@@@@@@@@@@@@@@@@@@@@@@@@@@@@@@@@@@@@################\nSS###############..@@@@@@@@@@@@@@@@@@@@@@@@@@@@@@@@@@@@@@@@@@@@@@@@@@@@@@@@@@@@@@@@@################\nSS###############..@@@@@@@@@@@@@@@@@@@@@@@@@@@@@@@@@@@@@@@@@@@@@@@@@@@@@@@@@@@@@@@@@################\nSS###############..@@@@@@@@@@@@@@@@@@@@@@@@@@@@@@@@@@@@@@@@@@@@@@@@@@@@@@@@@@@@@@@@@################\nSS###############..@@@@@@@@@@@@@@@@@@@@@@@@@@@@@@@@@@@@@@@@@@@@@@@@@@@@@@@@@@@@@@@@@################\nSS###############..@@@@@@@@@@@@@@@@@@@@@@@@@@@@@@@@@@@@@@@@@@@@@@@@@@@@@@@@@@@@@@@@@################\nSS###############..@@@@@@@@@@@@@@@@@@@@@@@@@@@@@@@@@@@@@@@@@@@@@@@@@@@@@@@@@@@@@@@@@################\nSS###############..@@@@@@@@@@@@@@@@@@@@@@@@@@@@@@@@@@@@@@@@@@@@@@@@@@@@@@@@@@@@@@@@@################\nSS###############..@@@@@@@@@@@@@@@@@@@@@@@@@@@@@@@@@@@@@@@@@@@@@@@@@@@@@@@@@@@@@@@@@################\nSS###############..@@@@@@@@@@@@@@@@@@@@@@@@@@@@@@@@@@@@@@@@@@@@@@@@@@@@@@@@@@@@@@@@@################\nSS###############..@@@@@@@@@@@@@@@@@@@@@@@@@@@@@@@@@@@@@@@@@@@@@@@@@@@@@@@@@@@@@@@@@################\nSS###############..@@@@@@@@@@@@@@@@@@@@@@@@@@@@@@@@@@@@@@@@@@@@@@@@@@@@@@@@@@@@@@@@@################\nSS###############..@@@@@@@@@@@@@@@@@@@@@@@@@@@@@@@@@@@@@@@@@@@@@@@@@@@@@@@@@@@@@@@@@################\nSS###############..@@@@@@@@@@@@@@@@@@@@@@@@@@@@@@@@@@@@@@@@@@@@@@@@@@@@@@@@@@@@@@@@@################\nSS###############..@@@@@@@@@@@@@@@@@@@@@@@@@@@@@@@@@@@@@@@@@@@@@@@@@@@@@@@@@@@@@@@@@################\nSS###############..@@@@@@@@@@@@@@@@@@@@@@@@@@@@@@@@@@@@@@@@@@@@@@@@@@@@@@@@@@@@@@@@@################\nSS###############..@@@@@@@@@@@@@@@@@@@@@@@@@@@@@@@@@@@@@@@@@@@@@@@@@@@@@@@@@@@@@@@@@################\nSS###############..@@@@@@@@@@@@@@@@@@@@@@@@@@@@@@@@@@@@@@@@@@@@@@@@@@@@@@@@@@@@@@@@@################\nSS###############..@@@@@@@@@@@@@@@@@@@@@@@@@@@@@@@@@@@@@@@@@@@@@@@@@@@@@@@@@@@@@@@@@################\nSS###############..@@@@@@@@@@@@@@@@@@@@@@@@@@@@@@@@@@@@@@@@@@@@@@@@@@@@@@@@@@@@@@@@@################\nSS###############..@@@@@@@@@@@@@@@@@@@@@@@@@@@@@@@@@@@@@@@@@@@@@@@@@@@@@@@@@@@@@@@@@################\nSS###############..@@@@@@@@@@@@@@@@@@@@@@@@@@@@@@@@@@@@@@@@@@@@@@@@@@@@@@@@@@@@@@@,,###############?\nSS###############..@@@@@@@@@@@@@@@@@@@@@@@@@@@@@@@@@@@@@@@@@@@@@@@@@@@@@@@@@@@@@@@,,###############?\nSS###############..@@@@@@@@@@@@@@@@@@@@@@@@@@@@@@@@@@@@@@@@@@@@@@@@@@@@@@@@@@@@@@@,,###############?\nSS###############..@@@@@@@@@@@@@@@@@@@@@@@@@@@@@@@@@@@@@@@@@@@@@@@@@@@@@@@@@@@@@@@,,###############?\nSS###############++@@@@@@@@@@@@@@@@@@@@@@@@@@@@@@@@@@@@@@@@@@@@@@@@@@@@@@@@@@@@@@@::###############?\nSS###############++@@@@@@@@@@@@@@@@@@@@@@@@@@@@@@@@@@@@@@@@@@@@@@@@@@@@@@@@@@@@@@@::###############?\n++###############SS@@@@@@@@@@@@@@@@@@@@@@@@@@@@@@@@@@@@@@@@@@@@@@@@@@@@@@@@@@@@@@@**###############%\n++###############SS@@@@@@@@@@@@@@@@@@@@@@@@@@@@@@@@@@@@@@@@@@@@@@@@@@@@@@@@@@@@@@@**###############%\n..###############..@@@@@@@@@@@@@@@@@@@@@@@@@@@@@@@@@@@@@@@@@@@@@@@@@@@@@@@@@@@@@@@..###############.\n..###############..@@@@@@@@@@@@@@@@@@@@@@@@@@@@@@@@@@@@@@@@@@@@@@@@@@@@@@@@@@@@@@@..###############.\n**###############??@@@@@@@@@@@@@@@@@@@@@@@@@@@@@@@@@@@@@@@@@@@@@@@@@@@@@@@@@@@@@@@SS###############+\n,,#################,@@@@@@@@@@@@@@@@@@@@@@@@@@@@@@@@@@@@@@@@@@@@@@@@@@@@@@@@@@@@@@??###############*\n,,#################,@@@@@@@@@@@@@@@@@@@@@@@@@@@@@@@@@@@@@@@@@@@@@@@@@@@@@@@@@@@@@@??###############*\n@@#################*@@@@@@@@@@@@@@@@@@@@@@@@@@@@@@@@@@@@@@@@@@@@@@@@@@@@@@@@@@@@@:#################,\n@@#################*@@@@@@@@@@@@@@@@@@@@@@@@@@@@@@@@@@@@@@@@@@@@@@@@@@@@@@@@@@@@@:#################,\n@@..###############.@@@@@@@@@@@@@@@@@@@@@@@@@@@@@@@@@@@@@@@@@@@@@@@@@@@@@@@@@@@@@S###############??@\n@@..###############.@@@@@@@@@@@@@@@@@@@@@@@@@@@@@@@@@@@@@@@@@@@@@@@@@@@@@@@@@@@@@S###############??@\n@@++################,,@@@@@@@@@@@@@@@@@@@@@@@@@@@@@@@@@@@@@@@@@@@@@@@@@@@@@@@@@,,################SS@\n@@++################,,@@@@@@@@@@@@@@@@@@@@@@@@@@@@@@@@@@@@@@@@@@@@@@@@@@@@@@@@@,,################SS@\n@@,,################++@@@@@@@@@@@@@@@@@@@@@@@@@@@@@@@@@@@@@@@@@@@@@@@@@@@@@@@@@++################::@\n@@@@..################,,@@@@@@@@@@@@@@@@@@@@@@@@@@@@@@@@@@@@@@@@@@@@@@@@@@@@@::################%%@@@\n@@@@..################,,@@@@@@@@@@@@@@@@@@@@@@@@@@@@@@@@@@@@@@@@@@@@@@@@@@@@@::################%%@@@\n@@@@**################%%@@@@@@@@@@@@@@@@@@@@@@@@@@@@@@@@@@@@@@@@@@@@@@@@@@@,,%%################**@@@\n@@@@**################%%@@@@@@@@@@@@@@@@@@@@@@@@@@@@@@@@@@@@@@@@@@@@@@@@@@@,,%%################**@@@\n@@@@@@%%################SS@@@@@@@@@@@@@@@@@@@@@@@@@@@@@@@@@@@@@@@@@@@@@@@@@..################%%@@@@@\n@@@@@@%%################SS@@@@@@@@@@@@@@@@@@@@@@@@@@@@@@@@@@@@@@@@@@@@@@@@@..################%%@@@@@\n@@@@@@::##################SS@@@@@@@@@@@@@@@@@@@@@@@@@@@@@@@@@@@@@@@@@@@,,..##################::@@@@@\n@@@@@@::##################SS@@@@@@@@@@@@@@@@@@@@@@@@@@@@@@@@@@@@@@@@@@@,,..##################::@@@@@\n@@@@@@@@SS##################..,@@@@@@@@@@@@@@@@@@@@@@@@@@@@@@@@@@@@@@@:??##################SS@@@@@@@\n@@@@@@@@,,?####################..,,@@@@@@@@@@@@@@@@@@@@@@@@@@@@@@@::SS####################%,,@@@@@@@\n@@@@@@@@,,?####################..,,@@@@@@@@@@@@@@@@@@@@@@@@@@@@@@@::SS####################%,,@@@@@@@\n@@@@@@@@@@:######################??SS::@@@@@@@@@@@@@@@@@@@@@,,..%%######################??,@@@@@@@@@\n@@@@@@@@@@:######################??SS::@@@@@@@@@@@@@@@@@@@@@,,..%%######################??,@@@@@@@@@\n@@@@@@@@@@@**###########################%%SS++.......++SS..?##########################??::@@@@@@@@@@\n@@@@@@@@@@@**###########################%%SS++.......++SS..?##########################??::@@@@@@@@@@\n@@@@@@@@@@@@@::#####################################################################??::@@@@@@@@@@@@\n@@@@@@@@@@@@@::#####################################################################??::@@@@@@@@@@@@\n@@@@@@@@@@@@@@@::%%###############################################################..,,@@@@@@@@@@@@@@\n@@@@@@@@@@@@@@@@@,,S#############################################################.@@@@@@@@@@@@@@@@@@\n@@@@@@@@@@@@@@@@@,,S#############################################################.@@@@@@@@@@@@@@@@@@\n@@@@@@@@@@@@@@@@@@@@::%%#####################################################SS,,@@@@@@@@@@@@@@@@@@@\n@@@@@@@@@@@@@@@@@@@@::%%#####################################################SS,,@@@@@@@@@@@@@@@@@@@\n@@@@@@@@@@@@@@@@@@@@@@@@::..#############################################SS,,@@@@@@@@@@@@@@@@@@@@@@@\n@@@@@@@@@@@@@@@@@@@@@@@@::..#############################################SS,,@@@@@@@@@@@@@@@@@@@@@@@\n@@@@@@@@@@@@@@@@@@@@@@@@@@@@,,...#################################??SS*@@@@@@@@@@@@@@@@@@@@@@@@@@@@@\n@@@@@@@@@@@@@@@@@@@@@@@@@@@@,,...#################################??SS*@@@@@@@@@@@@@@@@@@@@@@@@@@@@@\n@@@@@@@@@@@@@@@@@@@@@@@@@@@@@@@@@@@::..S..%%??#########??%%.++**,,@@@@@@@@@@@@@@@@@@@@@@@@@@@@@@@@@@'
p17
aS'U'
p18
aa.