(lp0
(lp1
S'@@@@@@@@@@@@@@@@@@@@@@@@@@@@@@@@@@@@@@@@@@@@@@@@@@@@@@@@@@@@@@@@@@@@@@@@@@@@@@@@@@@@@@@@@@@@@@@@@@@@\n@@@@@@@@@@@@@@@@@@@@@@@@@@@@@@@@@@@@@@@@@@@@@@@@@@@@@@@@@@@@@@@@@@@@@@@@@@@@@@@@@@@@@@@@@@@@@@@@@@@@\n@@@@@@@@@@@@@@@@@@@@@@@@@@@@@@@@@@@@@@@@@@@@@@@@@@@@@@@@@@@@@@@@@@@@@@@@@@@@@@@@@@@@@@@@@@@@@@@@@@@@\n@@@@@@@@@@@@@@@@@@@@@@@@@@@@@@@@@@@@@@@@@@@@@@@@@@@@@@@@@@@@@@@@@@@@@@@@@@@@@@@@@@@@@@@@@@@@@@@@@@@@\n@@@@@@@@@@@@@@@@@@@@@@@@@@@@@@@@@@@@@@@@@@@@@@@@@@@@@@@@@@@@@@@@@@@@@@@@@@@@@@@@@@@@@@@@@@@@@@@@@@@@\n@@@@@@@@@@@@@@@@@@@@@@@@@@@@@@@@@@@@@@@@@@@@@@@@@@@@@@@@@@@@@@@@@@@@@@@@@@@@@@@@@@@@@@@@@@@@@@@@@@@@\n@@@@@@@@@@@@@@@@@@@@@@@@@@@@@@@@@@@@@@@@@,#############S@@@@@@@@@@@@@@@@@@@@@@@@@@@@@@@@@@@@@@@@@@@@\n@@@@@@@@@@@@@@@@@@@@@@@@@@@@@@@@@@@@@@@@@,#############S@@@@@@@@@@@@@@@@@@@@@@@@@@@@@@@@@@@@@@@@@@@@\n@@@@@@@@@@@@@@@@@@@@@@@@@@@@@@@@@@@@@@@@@+#############?@@@@@@@@@@@@@@@@@@@@@@@@@@@@@@@@@@@@@@@@@@@@\n@@@@@@@@@@@@@@@@@@@@@@@@@@@@@@@@@@@@@@@@@?##############**@@@@@@@@@@@@@@@@@@@@@@@@@@@@@@@@@@@@@@@@@@\n@@@@@@@@@@@@@@@@@@@@@@@@@@@@@@@@@@@@@@@@*###############%%@@@@@@@@@@@@@@@@@@@@@@@@@@@@@@@@@@@@@@@@@@\n@@@@@@@@@@@@@@@@@@@@@@@@@@@@@@@@@@@@@@@@.#################,@@@@@@@@@@@@@@@@@@@@@@@@@@@@@@@@@@@@@@@@@\n@@@@@@@@@@@@@@@@@@@@@@@@@@@@@@@@@@@@@@@,##################+@@@@@@@@@@@@@@@@@@@@@@@@@@@@@@@@@@@@@@@@@\n@@@@@@@@@@@@@@@@@@@@@@@@@@@@@@@@@@@@@@@,##################+@@@@@@@@@@@@@@@@@@@@@@@@@@@@@@@@@@@@@@@@@\n@@@@@@@@@@@@@@@@@@@@@@@@@@@@@@@@@@@@@@@+##################?@@@@@@@@@@@@@@@@@@@@@@@@@@@@@@@@@@@@@@@@@\n@@@@@@@@@@@@@@@@@@@@@@@@@@@@@@@@@@@@@@@?#######??.#########*@@@@@@@@@@@@@@@@@@@@@@@@@@@@@@@@@@@@@@@@\n@@@@@@@@@@@@@@@@@@@@@@@@@@@@@@@@@@@@@**########SS.#########.@@@@@@@@@@@@@@@@@@@@@@@@@@@@@@@@@@@@@@@@\n@@@@@@@@@@@@@@@@@@@@@@@@@@@@@@@@@@@@@%%########**,##########,@@@@@@@@@@@@@@@@@@@@@@@@@@@@@@@@@@@@@@@\n@@@@@@@@@@@@@@@@@@@@@@@@@@@@@@@@@@@@@%%########**,##########,@@@@@@@@@@@@@@@@@@@@@@@@@@@@@@@@@@@@@@@\n@@@@@@@@@@@@@@@@@@@@@@@@@@@@@@@@@@@@:#########?@@@.#########+@@@@@@@@@@@@@@@@@@@@@@@@@@@@@@@@@@@@@@@\n@@@@@@@@@@@@@@@@@@@@@@@@@@@@@@@@@@@@S#########S@@@.#########?@@@@@@@@@@@@@@@@@@@@@@@@@@@@@@@@@@@@@@@\n@@@@@@@@@@@@@@@@@@@@@@@@@@@@@@@@@@@@##########*@@@,##########**@@@@@@@@@@@@@@@@@@@@@@@@@@@@@@@@@@@@@\n@@@@@@@@@@@@@@@@@@@@@@@@@@@@@@@@@@@.#########?@@@@@..########..@@@@@@@@@@@@@@@@@@@@@@@@@@@@@@@@@@@@@\n@@@@@@@@@@@@@@@@@@@@@@@@@@@@@@@@@@@.#########?@@@@@..########..@@@@@@@@@@@@@@@@@@@@@@@@@@@@@@@@@@@@@\n@@@@@@@@@@@@@@@@@@@@@@@@@@@@@@@@@@@%#########S@@@@@..##########,@@@@@@@@@@@@@@@@@@@@@@@@@@@@@@@@@@@@\n@@@@@@@@@@@@@@@@@@@@@@@@@@@@@@@@@@:##########:@@@@@,,##########+@@@@@@@@@@@@@@@@@@@@@@@@@@@@@@@@@@@@\n@@@@@@@@@@@@@@@@@@@@@@@@@@@@@@@@@@S#########%@@@@@@@@S#########?@@@@@@@@@@@@@@@@@@@@@@@@@@@@@@@@@@@@\n@@@@@@@@@@@@@@@@@@@@@@@@@@@@@@@@,,##########+@@@@@@@@:##########*@@@@@@@@@@@@@@@@@@@@@@@@@@@@@@@@@@@\n@@@@@@@@@@@@@@@@@@@@@@@@@@@@@@@@,,##########+@@@@@@@@:##########*@@@@@@@@@@@@@@@@@@@@@@@@@@@@@@@@@@@\n@@@@@@@@@@@@@@@@@@@@@@@@@@@@@@@@..##########,@@@@@@@@@?#########.@@@@@@@@@@@@@@@@@@@@@@@@@@@@@@@@@@@\n@@@@@@@@@@@@@@@@@@@@@@@@@@@@@@@@%%########..@@@@@@@@@@+##########,@@@@@@@@@@@@@@@@@@@@@@@@@@@@@@@@@@\n@@@@@@@@@@@@@@@@@@@@@@@@@@@@@@@:##########**@@@@@@@@@@,##########+@@@@@@@@@@@@@@@@@@@@@@@@@@@@@@@@@@\n@@@@@@@@@@@@@@@@@@@@@@@@@@@@@@@S#########?@@@@@@@@@@@@@.#########?@@@@@@@@@@@@@@@@@@@@@@@@@@@@@@@@@@\n@@@@@@@@@@@@@@@@@@@@@@@@@@@@@@@S#########?@@@@@@@@@@@@@.#########?@@@@@@@@@@@@@@@@@@@@@@@@@@@@@@@@@@\n@@@@@@@@@@@@@@@@@@@@@@@@@@@@@@,##########S@@@@@@@@@@@@@*##########**@@@@@@@@@@@@@@@@@@@@@@@@@@@@@@@@\n@@@@@@@@@@@@@@@@@@@@@@@@@@@@@@.##########:@@@@@@@@@@@@@@??########..@@@@@@@@@@@@@@@@@@@@@@@@@@@@@@@@\n@@@@@@@@@@@@@@@@@@@@@@@@@@@@@@%#########%@@@@@@@@@@@@@@@++##########,@@@@@@@@@@@@@@@@@@@@@@@@@@@@@@@\n@@@@@@@@@@@@@@@@@@@@@@@@@@@@@:##########.@@@@@@@@@@@@@@@::##########+@@@@@@@@@@@@@@@@@@@@@@@@@@@@@@@\n@@@@@@@@@@@@@@@@@@@@@@@@@@@@@:##########.@@@@@@@@@@@@@@@::##########+@@@@@@@@@@@@@@@@@@@@@@@@@@@@@@@\n@@@@@@@@@@@@@@@@@@@@@@@@@@@@@S##########,@@@@@@@@@@@@@@@@@%#########?@@@@@@@@@@@@@@@@@@@@@@@@@@@@@@@\n@@@@@@@@@@@@@@@@@@@@@@@@@@@,,##########S@@@@@@@@@@@@@@@@@@.##########*@@@@@@@@@@@@@@@@@@@@@@@@@@@@@@\n@@@@@@@@@@@@@@@@@@@@@@@@@@@++##########:@@@@@@@@@@@@@@@@@@,##########.@@@@@@@@@@@@@@@@@@@@@@@@@@@@@@\n@@@@@@@@@@@@@@@@@@@@@@@@@@@??########??@@@@@@@@@@@@@@@@@@@@S##########,@@@@@@@@@@@@@@@@@@@@@@@@@@@@@\n@@@@@@@@@@@@@@@@@@@@@@@@@@@??########??@@@@@@@@@@@@@@@@@@@@S##########,@@@@@@@@@@@@@@@@@@@@@@@@@@@@@\n@@@@@@@@@@@@@@@@@@@@@@@@@@*##########++@@@@@@@@@@@@@@@@@@@@:##########+@@@@@@@@@@@@@@@@@@@@@@@@@@@@@\n@@@@@@@@@@@@@@@@@@@@@@@@@@.##########,,@@@@@@@@@@@@@@@@@@@@@%#########?@@@@@@@@@@@@@@@@@@@@@@@@@@@@@\n@@@@@@@@@@@@@@@@@@@@@@@@@,##########.@@@@@@@@@@@@@@@@@@@@@@@.##########**@@@@@@@@@@@@@@@@@@@@@@@@@@@\n@@@@@@@@@@@@@@@@@@@@@@@@@+##########*@@@@@@@@@@@@@@@@@@@@@@@,##########..@@@@@@@@@@@@@@@@@@@@@@@@@@@\n@@@@@@@@@@@@@@@@@@@@@@@@@+##########*@@@@@@@@@@@@@@@@@@@@@@@,##########..@@@@@@@@@@@@@@@@@@@@@@@@@@@\n@@@@@@@@@@@@@@@@@@@@@@@@@?#########?@@@@@@@@@@@@@@@@@@@@@@@@@..##########,@@@@@@@@@@@@@@@@@@@@@@@@@@\n@@@@@@@@@@@@@@@@@@@@@@@@*##########+@@@@@@@@@@@@@@@@@@@@@@@@@**##########+@@@@@@@@@@@@@@@@@@@@@@@@@@\n@@@@@@@@@@@@@@@@@@@@@@@@.##########:@@@@@@@@@@@@@@@@@@@@@@@@@@@?#########?@@@@@@@@@@@@@@@@@@@@@@@@@@\n@@@@@@@@@@@@@@@@@@@@@@@@.##########:@@@@@@@@@@@@@@@@@@@@@@@@@@@?#########?@@@@@@@@@@@@@@@@@@@@@@@@@@\n@@@@@@@@@@@@@@@@@@@@@@,,##########%@@@@@@@@@@@@@@@@@@@@@@@@@@@@+##########*@@@@@@@@@@@@@@@@@@@@@@@@@\n@@@@@@@@@@@@@@@@@@@@@@++##########.@@@@@@@@@@@@@@@@@@@@@@@@@@@@,##########.@@@@@@@@@@@@@@@@@@@@@@@@@\n@@@@@@@@@@@@@@@@@@@@@@??##########,,,,,,,,,,,,,,,,,,,,,,,,,,,,,,%##########,@@@@@@@@@@@@@@@@@@@@@@@@\n@@@@@@@@@@@@@@@@@@@@@*#####################################################+@@@@@@@@@@@@@@@@@@@@@@@@\n@@@@@@@@@@@@@@@@@@@@@*#####################################################+@@@@@@@@@@@@@@@@@@@@@@@@\n@@@@@@@@@@@@@@@@@@@@@.#####################################################?@@@@@@@@@@@@@@@@@@@@@@@@\n@@@@@@@@@@@@@@@@@@@@,#######################################################**@@@@@@@@@@@@@@@@@@@@@@\n@@@@@@@@@@@@@@@@@@@@+#######################################################..@@@@@@@@@@@@@@@@@@@@@@\n@@@@@@@@@@@@@@@@@@@@?#########################################################,@@@@@@@@@@@@@@@@@@@@@\n@@@@@@@@@@@@@@@@@@@@?#########################################################,@@@@@@@@@@@@@@@@@@@@@\n@@@@@@@@@@@@@@@@@@@*##########################################################+@@@@@@@@@@@@@@@@@@@@@\n@@@@@@@@@@@@@@@@@@@%##########################################################?@@@@@@@@@@@@@@@@@@@@@\n@@@@@@@@@@@@@@@@@::##########?@@@@@@@@@@@@@@@@@@@@@@@@@@@@@@@@@@@@@@.##########*@@@@@@@@@@@@@@@@@@@@\n@@@@@@@@@@@@@@@@@SS##########+@@@@@@@@@@@@@@@@@@@@@@@@@@@@@@@@@@@@@@*##########.@@@@@@@@@@@@@@@@@@@@\n@@@@@@@@@@@@@@@@@SS##########+@@@@@@@@@@@@@@@@@@@@@@@@@@@@@@@@@@@@@@*##########.@@@@@@@@@@@@@@@@@@@@\n@@@@@@@@@@@@@@@@@############,@@@@@@@@@@@@@@@@@@@@@@@@@@@@@@@@@@@@@@@?##########,@@@@@@@@@@@@@@@@@@@\n@@@@@@@@@@@@@@@@.##########..@@@@@@@@@@@@@@@@@@@@@@@@@@@@@@@@@@@@@@@@+##########+@@@@@@@@@@@@@@@@@@@\n@@@@@@@@@@@@@@@@%##########**@@@@@@@@@@@@@@@@@@@@@@@@@@@@@@@@@@@@@@@@,##########?@@@@@@@@@@@@@@@@@@@\n@@@@@@@@@@@@@@@:##########?@@@@@@@@@@@@@@@@@@@@@@@@@@@@@@@@@@@@@@@@@@@%##########**@@@@@@@@@@@@@@@@@\n@@@@@@@@@@@@@@@:##########?@@@@@@@@@@@@@@@@@@@@@@@@@@@@@@@@@@@@@@@@@@@%##########**@@@@@@@@@@@@@@@@@\n@@@@@@@@@@@@@@@S##########S@@@@@@@@@@@@@@@@@@@@@@@@@@@@@@@@@@@@@@@@@@@.##########..@@@@@@@@@@@@@@@@@\n@@@@@@@@@@@@@@,###########:@@@@@@@@@@@@@@@@@@@@@@@@@@@@@@@@@@@@@@@@@@@,############,@@@@@@@@@@@@@@@@\n@@@@@@@@@@@@@@.##########%@@@@@@@@@@@@@@@@@@@@@@@@@@@@@@@@@@@@@@@@@@@@@SS##########+@@@@@@@@@@@@@@@@\n@@@@@@@@@@@@@@%##########.@@@@@@@@@@@@@@@@@@@@@@@@@@@@@@@@@@@@@@@@@@@@@::##########?@@@@@@@@@@@@@@@@\n@@@@@@@@@@@@@@%##########.@@@@@@@@@@@@@@@@@@@@@@@@@@@@@@@@@@@@@@@@@@@@@::##########?@@@@@@@@@@@@@@@@\n@@@@@@@@@@@@::###########,@@@@@@@@@@@@@@@@@@@@@@@@@@@@@@@@@@@@@@@@@@@@@@@%##########*@@@@@@@@@@@@@@@\n@@@@@@@@@@@@SS##########S@@@@@@@@@@@@@@@@@@@@@@@@@@@@@@@@@@@@@@@@@@@@@@@@.##########.@@@@@@@@@@@@@@@\n@@@@@@@@@@@,############:@@@@@@@@@@@@@@@@@@@@@@@@@@@@@@@@@@@@@@@@@@@@@@@@,###########,@@@@@@@@@@@@@@\n@@@@@@@@@@@.##########??@@@@@@@@@@@@@@@@@@@@@@@@@@@@@@@@@@@@@@@@@@@@@@@@@@.##########+@@@@@@@@@@@@@@\n@@@@@@@@@@@.##########??@@@@@@@@@@@@@@@@@@@@@@@@@@@@@@@@@@@@@@@@@@@@@@@@@@.##########+@@@@@@@@@@@@@@\n@@@@@@@@@@@%##########++@@@@@@@@@@@@@@@@@@@@@@@@@@@@@@@@@@@@@@@@@@@@@@@@@@*##########?@@@@@@@@@@@@@@\n@@@@@@@@@@:###########,,@@@@@@@@@@@@@@@@@@@@@@@@@@@@@@@@@@@@@@@@@@@@@@@@@@@?##########**@@@@@@@@@@@@\n@@@@@@@@@@S##########.@@@@@@@@@@@@@@@@@@@@@@@@@@@@@@@@@@@@@@@@@@@@@@@@@@@@@+##########..@@@@@@@@@@@@\n@@@@@@@@@,###########*@@@@@@@@@@@@@@@@@@@@@@@@@@@@@@@@@@@@@@@@@@@@@@@@@@@@@,############,@@@@@@@@@@@\n@@@@@@@@@,###########*@@@@@@@@@@@@@@@@@@@@@@@@@@@@@@@@@@@@@@@@@@@@@@@@@@@@@,############,@@@@@@@@@@@\n@@@@@@@@@.##########?@@@@@@@@@@@@@@@@@@@@@@@@@@@@@@@@@@@@@@@@@@@@@@@@@@@@@@@..##########+@@@@@@@@@@@\n@@@@@@@@@.++++++++++*@@@@@@@@@@@@@@@@@@@@@@@@@@@@@@@@@@@@@@@@@@@@@@@@@@@@@@@::++++++++++.@@@@@@@@@@@\n@@@@@@@@@@@@@@@@@@@@@@@@@@@@@@@@@@@@@@@@@@@@@@@@@@@@@@@@@@@@@@@@@@@@@@@@@@@@@@@@@@@@@@@@@@@@@@@@@@@@\n@@@@@@@@@@@@@@@@@@@@@@@@@@@@@@@@@@@@@@@@@@@@@@@@@@@@@@@@@@@@@@@@@@@@@@@@@@@@@@@@@@@@@@@@@@@@@@@@@@@@\n@@@@@@@@@@@@@@@@@@@@@@@@@@@@@@@@@@@@@@@@@@@@@@@@@@@@@@@@@@@@@@@@@@@@@@@@@@@@@@@@@@@@@@@@@@@@@@@@@@@@\n@@@@@@@@@@@@@@@@@@@@@@@@@@@@@@@@@@@@@@@@@@@@@@@@@@@@@@@@@@@@@@@@@@@@@@@@@@@@@@@@@@@@@@@@@@@@@@@@@@@@\n@@@@@@@@@@@@@@@@@@@@@@@@@@@@@@@@@@@@@@@@@@@@@@@@@@@@@@@@@@@@@@@@@@@@@@@@@@@@@@@@@@@@@@@@@@@@@@@@@@@@\n@@@@@@@@@@@@@@@@@@@@@@@@@@@@@@@@@@@@@@@@@@@@@@@@@@@@@@@@@@@@@@@@@@@@@@@@@@@@@@@@@@@@@@@@@@@@@@@@@@@@\n@@@@@@@@@@@@@@@@@@@@@@@@@@@@@@@@@@@@@@@@@@@@@@@@@@@@@@@@@@@@@@@@@@@@@@@@@@@@@@@@@@@@@@@@@@@@@@@@@@@@\n@@@@@@@@@@@@@@@@@@@@@@@@@@@@@@@@@@@@@@@@@@@@@@@@@@@@@@@@@@@@@@@@@@@@@@@@@@@@@@@@@@@@@@@@@@@@@@@@@@@@\n@@@@@@@@@@@@@@@@@@@@@@@@@@@@@@@@@@@@@@@@@@@@@@@@@@@@@@@@@@@@@@@@@@@@@@@@@@@@@@@@@@@@@@@@@@@@@@@@@@@@\n@@@@@@@@@@@@@@@@@@@@@@@@@@@@@@@@@@@@@@@@@@@@@@@@@@@@@@@@@@@@@@@@@@@@@@@@@@@@@@@@@@@@@@@@@@@@@@@@@@@@'
p2
aS'A'
p3
aa(lp4
S'@@@@@@@@@@@@@@@@@@@@@@@@@@@@@@@@@@@@@@@@@@@@@@@@@@@@@@@@@@@@@@@@@@@@@@@@@@@@@@@@@@@@@@@@@@@@@@@@@@@@\n@@@@@@@@@@@@@@@@@@@@@@@@@@@@@@@@@@@@@@@@@@@@@@@@@@@@@@@@@@@@@@@@@@@@@@@@@@@@@@@@@@@@@@@@@@@@@@@@@@@@\n@@@@@@@@@@@@@@@@@@@@@@@@@@@@@@@@@@@@@@@@@@@@@@@@@@@@@@@@@@@@@@@@@@@@@@@@@@@@@@@@@@@@@@@@@@@@@@@@@@@@\n@@@@@@@@@@@@@@@@@@@@@@@@@@@@@@@@@@@@@@@@@@@@@@@@@@@@@@@@@@@@@@@@@@@@@@@@@@@@@@@@@@@@@@@@@@@@@@@@@@@@\n@@@@@@@@@@@@@@@@@@@S#################################??%SS+*,@@@@@@@@@@@@@@@@@@@@@@@@@@@@@@@@@@@@@@@\n@@@@@@@@@@@@@@@@@@@S#########################################%%+:@@@@@@@@@@@@@@@@@@@@@@@@@@@@@@@@@@@\n@@@@@@@@@@@@@@@@@@@S#############################################.**@@@@@@@@@@@@@@@@@@@@@@@@@@@@@@@@\n@@@@@@@@@@@@@@@@@@@S#############################################.**@@@@@@@@@@@@@@@@@@@@@@@@@@@@@@@@\n@@@@@@@@@@@@@@@@@@@S################################################.,@@@@@@@@@@@@@@@@@@@@@@@@@@@@@@\n@@@@@@@@@@@@@@@@@@@S##################################################.@@@@@@@@@@@@@@@@@@@@@@@@@@@@@\n@@@@@@@@@@@@@@@@@@@S###################################################++@@@@@@@@@@@@@@@@@@@@@@@@@@@\n@@@@@@@@@@@@@@@@@@@S#####################################################+@@@@@@@@@@@@@@@@@@@@@@@@@@\n@@@@@@@@@@@@@@@@@@@S###########%%%%%%%%%%%%%%%%%%??#######################*@@@@@@@@@@@@@@@@@@@@@@@@@\n@@@@@@@@@@@@@@@@@@@S###########%%%%%%%%%%%%%%%%%%??#######################*@@@@@@@@@@@@@@@@@@@@@@@@@\n@@@@@@@@@@@@@@@@@@@S##########?@@@@@@@@@@@@@@@@@@@@@@@:...################?,@@@@@@@@@@@@@@@@@@@@@@@@\n@@@@@@@@@@@@@@@@@@@S##########?@@@@@@@@@@@@@@@@@@@@@@@@@@@,.?##############+@@@@@@@@@@@@@@@@@@@@@@@@\n@@@@@@@@@@@@@@@@@@@S##########?@@@@@@@@@@@@@@@@@@@@@@@@@@@@@,..############?@@@@@@@@@@@@@@@@@@@@@@@@\n@@@@@@@@@@@@@@@@@@@S##########?@@@@@@@@@@@@@@@@@@@@@@@@@@@@@@@@.############**@@@@@@@@@@@@@@@@@@@@@@\n@@@@@@@@@@@@@@@@@@@S##########?@@@@@@@@@@@@@@@@@@@@@@@@@@@@@@@@.############**@@@@@@@@@@@@@@@@@@@@@@\n@@@@@@@@@@@@@@@@@@@S##########?@@@@@@@@@@@@@@@@@@@@@@@@@@@@@@@@,?###########SS@@@@@@@@@@@@@@@@@@@@@@\n@@@@@@@@@@@@@@@@@@@S##########?@@@@@@@@@@@@@@@@@@@@@@@@@@@@@@@@@.###########%%@@@@@@@@@@@@@@@@@@@@@@\n@@@@@@@@@@@@@@@@@@@S##########?@@@@@@@@@@@@@@@@@@@@@@@@@@@@@@@@@@#############@@@@@@@@@@@@@@@@@@@@@@\n@@@@@@@@@@@@@@@@@@@S##########?@@@@@@@@@@@@@@@@@@@@@@@@@@@@@@@@@@.############,@@@@@@@@@@@@@@@@@@@@@\n@@@@@@@@@@@@@@@@@@@S##########?@@@@@@@@@@@@@@@@@@@@@@@@@@@@@@@@@@.############,@@@@@@@@@@@@@@@@@@@@@\n@@@@@@@@@@@@@@@@@@@S##########?@@@@@@@@@@@@@@@@@@@@@@@@@@@@@@@@@@+############:@@@@@@@@@@@@@@@@@@@@@\n@@@@@@@@@@@@@@@@@@@S##########?@@@@@@@@@@@@@@@@@@@@@@@@@@@@@@@@@@.############:@@@@@@@@@@@@@@@@@@@@@\n@@@@@@@@@@@@@@@@@@@S##########?@@@@@@@@@@@@@@@@@@@@@@@@@@@@@@@@@@.############:@@@@@@@@@@@@@@@@@@@@@\n@@@@@@@@@@@@@@@@@@@S##########?@@@@@@@@@@@@@@@@@@@@@@@@@@@@@@@@@@+############,@@@@@@@@@@@@@@@@@@@@@\n@@@@@@@@@@@@@@@@@@@S##########?@@@@@@@@@@@@@@@@@@@@@@@@@@@@@@@@@@+############,@@@@@@@@@@@@@@@@@@@@@\n@@@@@@@@@@@@@@@@@@@S##########?@@@@@@@@@@@@@@@@@@@@@@@@@@@@@@@@@@S############@@@@@@@@@@@@@@@@@@@@@@\n@@@@@@@@@@@@@@@@@@@S##########?@@@@@@@@@@@@@@@@@@@@@@@@@@@@@@@@@@%##########%%@@@@@@@@@@@@@@@@@@@@@@\n@@@@@@@@@@@@@@@@@@@S##########?@@@@@@@@@@@@@@@@@@@@@@@@@@@@@@@@@,###########SS@@@@@@@@@@@@@@@@@@@@@@\n@@@@@@@@@@@@@@@@@@@S##########?@@@@@@@@@@@@@@@@@@@@@@@@@@@@@@@@@+###########**@@@@@@@@@@@@@@@@@@@@@@\n@@@@@@@@@@@@@@@@@@@S##########?@@@@@@@@@@@@@@@@@@@@@@@@@@@@@@@@@+###########**@@@@@@@@@@@@@@@@@@@@@@\n@@@@@@@@@@@@@@@@@@@S##########?@@@@@@@@@@@@@@@@@@@@@@@@@@@@@@@@:###########?@@@@@@@@@@@@@@@@@@@@@@@@\n@@@@@@@@@@@@@@@@@@@S##########?@@@@@@@@@@@@@@@@@@@@@@@@@@@@@@,,?###########+@@@@@@@@@@@@@@@@@@@@@@@@\n@@@@@@@@@@@@@@@@@@@S##########?@@@@@@@@@@@@@@@@@@@@@@@@@@@@@*??###########?,@@@@@@@@@@@@@@@@@@@@@@@@\n@@@@@@@@@@@@@@@@@@@S##########?@@@@@@@@@@@@@@@@@@@@@@@@@@@*.##############:@@@@@@@@@@@@@@@@@@@@@@@@@\n@@@@@@@@@@@@@@@@@@@S##########?@@@@@@@@@@@@@@@@@@@@@@@@@@@*.##############:@@@@@@@@@@@@@@@@@@@@@@@@@\n@@@@@@@@@@@@@@@@@@@S###########,,,,,,,,,,,,,,,,,,::**.+.#################*@@@@@@@@@@@@@@@@@@@@@@@@@@\n@@@@@@@@@@@@@@@@@@@S###################################################**@@@@@@@@@@@@@@@@@@@@@@@@@@@\n@@@@@@@@@@@@@@@@@@@S#################################################S,@@@@@@@@@@@@@@@@@@@@@@@@@@@@@\n@@@@@@@@@@@@@@@@@@@S#############################################%++,@@@@@@@@@@@@@@@@@@@@@@@@@@@@@@@\n@@@@@@@@@@@@@@@@@@@S#############################################%++,@@@@@@@@@@@@@@@@@@@@@@@@@@@@@@@\n@@@@@@@@@@@@@@@@@@@S############################################+:@@@@@@@@@@@@@@@@@@@@@@@@@@@@@@@@@@\n@@@@@@@@@@@@@@@@@@@S##############################################??+,@@@@@@@@@@@@@@@@@@@@@@@@@@@@@@\n@@@@@@@@@@@@@@@@@@@S##################################################+@@@@@@@@@@@@@@@@@@@@@@@@@@@@@\n@@@@@@@@@@@@@@@@@@@S###################################################??:@@@@@@@@@@@@@@@@@@@@@@@@@@\n@@@@@@@@@@@@@@@@@@@S###################################################??:@@@@@@@@@@@@@@@@@@@@@@@@@@\n@@@@@@@@@@@@@@@@@@@S###########SSSSSSSSSSSSSSSSSSSS...%?##################*@@@@@@@@@@@@@@@@@@@@@@@@@\n@@@@@@@@@@@@@@@@@@@S##########?@@@@@@@@@@@@@@@@@@@@@@@@@,,*S###############*@@@@@@@@@@@@@@@@@@@@@@@@\n@@@@@@@@@@@@@@@@@@@S##########?@@@@@@@@@@@@@@@@@@@@@@@@@@@@@,++#############::@@@@@@@@@@@@@@@@@@@@@@\n@@@@@@@@@@@@@@@@@@@S##########?@@@@@@@@@@@@@@@@@@@@@@@@@@@@@,++#############::@@@@@@@@@@@@@@@@@@@@@@\n@@@@@@@@@@@@@@@@@@@S##########?@@@@@@@@@@@@@@@@@@@@@@@@@@@@@@@@,%###########??,@@@@@@@@@@@@@@@@@@@@@\n@@@@@@@@@@@@@@@@@@@S##########?@@@@@@@@@@@@@@@@@@@@@@@@@@@@@@@@@,%############S@@@@@@@@@@@@@@@@@@@@@\n@@@@@@@@@@@@@@@@@@@S##########?@@@@@@@@@@@@@@@@@@@@@@@@@@@@@@@@@@,#############:@@@@@@@@@@@@@@@@@@@@\n@@@@@@@@@@@@@@@@@@@S##########?@@@@@@@@@@@@@@@@@@@@@@@@@@@@@@@@@@@..###########S@@@@@@@@@@@@@@@@@@@@\n@@@@@@@@@@@@@@@@@@@S##########?@@@@@@@@@@@@@@@@@@@@@@@@@@@@@@@@@@@..###########S@@@@@@@@@@@@@@@@@@@@\n@@@@@@@@@@@@@@@@@@@S##########?@@@@@@@@@@@@@@@@@@@@@@@@@@@@@@@@@@@@@############,@@@@@@@@@@@@@@@@@@@\n@@@@@@@@@@@@@@@@@@@S##########?@@@@@@@@@@@@@@@@@@@@@@@@@@@@@@@@@@@@@S###########*@@@@@@@@@@@@@@@@@@@\n@@@@@@@@@@@@@@@@@@@S##########?@@@@@@@@@@@@@@@@@@@@@@@@@@@@@@@@@@@@@.###########S@@@@@@@@@@@@@@@@@@@\n@@@@@@@@@@@@@@@@@@@S##########?@@@@@@@@@@@@@@@@@@@@@@@@@@@@@@@@@@@@@:###########%@@@@@@@@@@@@@@@@@@@\n@@@@@@@@@@@@@@@@@@@S##########?@@@@@@@@@@@@@@@@@@@@@@@@@@@@@@@@@@@@@:###########%@@@@@@@@@@@@@@@@@@@\n@@@@@@@@@@@@@@@@@@@S##########?@@@@@@@@@@@@@@@@@@@@@@@@@@@@@@@@@@@@@@###########?@@@@@@@@@@@@@@@@@@@\n@@@@@@@@@@@@@@@@@@@S##########?@@@@@@@@@@@@@@@@@@@@@@@@@@@@@@@@@@@@@@############@@@@@@@@@@@@@@@@@@@\n@@@@@@@@@@@@@@@@@@@S##########?@@@@@@@@@@@@@@@@@@@@@@@@@@@@@@@@@@@@@@############,,@@@@@@@@@@@@@@@@@\n@@@@@@@@@@@@@@@@@@@S##########?@@@@@@@@@@@@@@@@@@@@@@@@@@@@@@@@@@@@@@############,,@@@@@@@@@@@@@@@@@\n@@@@@@@@@@@@@@@@@@@S##########?@@@@@@@@@@@@@@@@@@@@@@@@@@@@@@@@@@@@@@############,,@@@@@@@@@@@@@@@@@\n@@@@@@@@@@@@@@@@@@@S##########?@@@@@@@@@@@@@@@@@@@@@@@@@@@@@@@@@@@@@,############,,@@@@@@@@@@@@@@@@@\n@@@@@@@@@@@@@@@@@@@S##########?@@@@@@@@@@@@@@@@@@@@@@@@@@@@@@@@@@@@@:############@@@@@@@@@@@@@@@@@@@\n@@@@@@@@@@@@@@@@@@@S##########?@@@@@@@@@@@@@@@@@@@@@@@@@@@@@@@@@@@@@.###########?@@@@@@@@@@@@@@@@@@@\n@@@@@@@@@@@@@@@@@@@S##########?@@@@@@@@@@@@@@@@@@@@@@@@@@@@@@@@@@@@@.###########%@@@@@@@@@@@@@@@@@@@\n@@@@@@@@@@@@@@@@@@@S##########?@@@@@@@@@@@@@@@@@@@@@@@@@@@@@@@@@@@@@.###########%@@@@@@@@@@@@@@@@@@@\n@@@@@@@@@@@@@@@@@@@S##########?@@@@@@@@@@@@@@@@@@@@@@@@@@@@@@@@@@@,,############S@@@@@@@@@@@@@@@@@@@\n@@@@@@@@@@@@@@@@@@@S##########?@@@@@@@@@@@@@@@@@@@@@@@@@@@@@@@@@@@SS############*@@@@@@@@@@@@@@@@@@@\n@@@@@@@@@@@@@@@@@@@S##########?@@@@@@@@@@@@@@@@@@@@@@@@@@@@@@@@@@:##############@@@@@@@@@@@@@@@@@@@@\n@@@@@@@@@@@@@@@@@@@S##########?@@@@@@@@@@@@@@@@@@@@@@@@@@@@@@@@@:##############S@@@@@@@@@@@@@@@@@@@@\n@@@@@@@@@@@@@@@@@@@S##########?@@@@@@@@@@@@@@@@@@@@@@@@@@@@@@@@@:##############S@@@@@@@@@@@@@@@@@@@@\n@@@@@@@@@@@@@@@@@@@S##########?@@@@@@@@@@@@@@@@@@@@@@@@@@@@@@@@*###############,@@@@@@@@@@@@@@@@@@@@\n@@@@@@@@@@@@@@@@@@@S##########?@@@@@@@@@@@@@@@@@@@@@@@@@@@@@:..###############S@@@@@@@@@@@@@@@@@@@@@\n@@@@@@@@@@@@@@@@@@@S##########?@@@@@@@@@@@@@@@@@@@@@@@@,**S?################??,@@@@@@@@@@@@@@@@@@@@@\n@@@@@@@@@@@@@@@@@@@S###########%%%%%%%%%%%%%%%%%%%%???######################::@@@@@@@@@@@@@@@@@@@@@@\n@@@@@@@@@@@@@@@@@@@S###########%%%%%%%%%%%%%%%%%%%%???######################::@@@@@@@@@@@@@@@@@@@@@@\n@@@@@@@@@@@@@@@@@@@S#######################################################*@@@@@@@@@@@@@@@@@@@@@@@@\n@@@@@@@@@@@@@@@@@@@S######################################################*@@@@@@@@@@@@@@@@@@@@@@@@@\n@@@@@@@@@@@@@@@@@@@S###################################################%%,@@@@@@@@@@@@@@@@@@@@@@@@@@\n@@@@@@@@@@@@@@@@@@@S##################################################.@@@@@@@@@@@@@@@@@@@@@@@@@@@@@\n@@@@@@@@@@@@@@@@@@@S##################################################.@@@@@@@@@@@@@@@@@@@@@@@@@@@@@\n@@@@@@@@@@@@@@@@@@@S##############################################??+,@@@@@@@@@@@@@@@@@@@@@@@@@@@@@@\n@@@@@@@@@@@@@@@@@@@S###########################################?S*@@@@@@@@@@@@@@@@@@@@@@@@@@@@@@@@@@\n@@@@@@@@@@@@@@@@@@@S###################################?%%.+*,,@@@@@@@@@@@@@@@@@@@@@@@@@@@@@@@@@@@@@\n@@@@@@@@@@@@@@@@@@@@@@@@@@@@@@@@@@@@@@@@@@@@@@@@@@@@@@@@@@@@@@@@@@@@@@@@@@@@@@@@@@@@@@@@@@@@@@@@@@@@\n@@@@@@@@@@@@@@@@@@@@@@@@@@@@@@@@@@@@@@@@@@@@@@@@@@@@@@@@@@@@@@@@@@@@@@@@@@@@@@@@@@@@@@@@@@@@@@@@@@@@\n@@@@@@@@@@@@@@@@@@@@@@@@@@@@@@@@@@@@@@@@@@@@@@@@@@@@@@@@@@@@@@@@@@@@@@@@@@@@@@@@@@@@@@@@@@@@@@@@@@@@\n@@@@@@@@@@@@@@@@@@@@@@@@@@@@@@@@@@@@@@@@@@@@@@@@@@@@@@@@@@@@@@@@@@@@@@@@@@@@@@@@@@@@@@@@@@@@@@@@@@@@\n@@@@@@@@@@@@@@@@@@@@@@@@@@@@@@@@@@@@@@@@@@@@@@@@@@@@@@@@@@@@@@@@@@@@@@@@@@@@@@@@@@@@@@@@@@@@@@@@@@@@\n@@@@@@@@@@@@@@@@@@@@@@@@@@@@@@@@@@@@@@@@@@@@@@@@@@@@@@@@@@@@@@@@@@@@@@@@@@@@@@@@@@@@@@@@@@@@@@@@@@@@\n@@@@@@@@@@@@@@@@@@@@@@@@@@@@@@@@@@@@@@@@@@@@@@@@@@@@@@@@@@@@@@@@@@@@@@@@@@@@@@@@@@@@@@@@@@@@@@@@@@@@\n@@@@@@@@@@@@@@@@@@@@@@@@@@@@@@@@@@@@@@@@@@@@@@@@@@@@@@@@@@@@@@@@@@@@@@@@@@@@@@@@@@@@@@@@@@@@@@@@@@@@\n@@@@@@@@@@@@@@@@@@@@@@@@@@@@@@@@@@@@@@@@@@@@@@@@@@@@@@@@@@@@@@@@@@@@@@@@@@@@@@@@@@@@@@@@@@@@@@@@@@@@'
p5
aS'B'
p6
aa(lp7
S'@@@@@@@@@@@@@@@@@@@@@@@@@@@@@@@@@@@@@@@@@@@@@@@@@@@@@@@@@@@@@@@@@@@@@@@@@@@@@@@@@@@@@@@@@@@@@@@@@@@@\n@@@@@@@@@@@@@@@@@@@@@@@@@@@@@@@@@@@@@@@@@@@@@@@@@@@@@@@@@@@@@@@@@@@@@@@@@@@@@@@@@@@@@@@@@@@@@@@@@@@@\n@@@@@@@@@@@@@@@@@@@@@@@@@@@@@@@@@@@@@@@@@@@@@@@@@@@@@@@@@@@@@@@@@@@@@@@@@@@@@@@@@@@@@@@@@@@@@@@@@@@@\n@@@@@@@@@@@@@@@@@@@@@@@@@@@@@@@@@@@@@@@@@@@@@@@@@@@@@@@@@@@@@@@@@@@@@@@@@@@@@@@@@@@@@@@@@@@@@@@@@@@@\n@@@@@@@@@@@@@@@@@@@@@@@@@@@@@@@@@@@@@@@@@@@@@@@@@@@@@@@@@@@@@@@@@@@@@@@@@@@@@@@@@@@@@@@@@@@@@@@@@@@@\n@@@@@@@@@@@@@@@,...............................................................@@@@@@@@@@@@@@@@@@@@@\n@@@@@@@@@@@@@@@:###############################################################@@@@@@@@@@@@@@@@@@@@@\n@@@@@@@@@@@@@@@:###############################################################@@@@@@@@@@@@@@@@@@@@@\n@@@@@@@@@@@@@@@:###############################################################@@@@@@@@@@@@@@@@@@@@@\n@@@@@@@@@@@@@@@:###############################################################@@@@@@@@@@@@@@@@@@@@@\n@@@@@@@@@@@@@@@:###############################################################@@@@@@@@@@@@@@@@@@@@@\n@@@@@@@@@@@@@@@:###############################################################@@@@@@@@@@@@@@@@@@@@@\n@@@@@@@@@@@@@@@:###############################################################@@@@@@@@@@@@@@@@@@@@@\n@@@@@@@@@@@@@@@:###############################################################@@@@@@@@@@@@@@@@@@@@@\n@@@@@@@@@@@@@@@:###############################################################@@@@@@@@@@@@@@@@@@@@@\n@@@@@@@@@@@@@@@:##########?@@@@@@@@@@@@@@@@@@@@@@@@@@@@@@@@@@@@@@@@@@@@@@@@@@@@@@@@@@@@@@@@@@@@@@@@@\n@@@@@@@@@@@@@@@:##########?@@@@@@@@@@@@@@@@@@@@@@@@@@@@@@@@@@@@@@@@@@@@@@@@@@@@@@@@@@@@@@@@@@@@@@@@@\n@@@@@@@@@@@@@@@:##########?@@@@@@@@@@@@@@@@@@@@@@@@@@@@@@@@@@@@@@@@@@@@@@@@@@@@@@@@@@@@@@@@@@@@@@@@@\n@@@@@@@@@@@@@@@:##########?@@@@@@@@@@@@@@@@@@@@@@@@@@@@@@@@@@@@@@@@@@@@@@@@@@@@@@@@@@@@@@@@@@@@@@@@@\n@@@@@@@@@@@@@@@:##########?@@@@@@@@@@@@@@@@@@@@@@@@@@@@@@@@@@@@@@@@@@@@@@@@@@@@@@@@@@@@@@@@@@@@@@@@@\n@@@@@@@@@@@@@@@:##########?@@@@@@@@@@@@@@@@@@@@@@@@@@@@@@@@@@@@@@@@@@@@@@@@@@@@@@@@@@@@@@@@@@@@@@@@@\n@@@@@@@@@@@@@@@:##########?@@@@@@@@@@@@@@@@@@@@@@@@@@@@@@@@@@@@@@@@@@@@@@@@@@@@@@@@@@@@@@@@@@@@@@@@@\n@@@@@@@@@@@@@@@:##########?@@@@@@@@@@@@@@@@@@@@@@@@@@@@@@@@@@@@@@@@@@@@@@@@@@@@@@@@@@@@@@@@@@@@@@@@@\n@@@@@@@@@@@@@@@:##########?@@@@@@@@@@@@@@@@@@@@@@@@@@@@@@@@@@@@@@@@@@@@@@@@@@@@@@@@@@@@@@@@@@@@@@@@@\n@@@@@@@@@@@@@@@:##########?@@@@@@@@@@@@@@@@@@@@@@@@@@@@@@@@@@@@@@@@@@@@@@@@@@@@@@@@@@@@@@@@@@@@@@@@@\n@@@@@@@@@@@@@@@:##########?@@@@@@@@@@@@@@@@@@@@@@@@@@@@@@@@@@@@@@@@@@@@@@@@@@@@@@@@@@@@@@@@@@@@@@@@@\n@@@@@@@@@@@@@@@:##########?@@@@@@@@@@@@@@@@@@@@@@@@@@@@@@@@@@@@@@@@@@@@@@@@@@@@@@@@@@@@@@@@@@@@@@@@@\n@@@@@@@@@@@@@@@:##########?@@@@@@@@@@@@@@@@@@@@@@@@@@@@@@@@@@@@@@@@@@@@@@@@@@@@@@@@@@@@@@@@@@@@@@@@@\n@@@@@@@@@@@@@@@:##########?@@@@@@@@@@@@@@@@@@@@@@@@@@@@@@@@@@@@@@@@@@@@@@@@@@@@@@@@@@@@@@@@@@@@@@@@@\n@@@@@@@@@@@@@@@:##########?@@@@@@@@@@@@@@@@@@@@@@@@@@@@@@@@@@@@@@@@@@@@@@@@@@@@@@@@@@@@@@@@@@@@@@@@@\n@@@@@@@@@@@@@@@:##########?@@@@@@@@@@@@@@@@@@@@@@@@@@@@@@@@@@@@@@@@@@@@@@@@@@@@@@@@@@@@@@@@@@@@@@@@@\n@@@@@@@@@@@@@@@:##########?@@@@@@@@@@@@@@@@@@@@@@@@@@@@@@@@@@@@@@@@@@@@@@@@@@@@@@@@@@@@@@@@@@@@@@@@@\n@@@@@@@@@@@@@@@:##########?@@@@@@@@@@@@@@@@@@@@@@@@@@@@@@@@@@@@@@@@@@@@@@@@@@@@@@@@@@@@@@@@@@@@@@@@@\n@@@@@@@@@@@@@@@:##########?@@@@@@@@@@@@@@@@@@@@@@@@@@@@@@@@@@@@@@@@@@@@@@@@@@@@@@@@@@@@@@@@@@@@@@@@@\n@@@@@@@@@@@@@@@:##########?@@@@@@@@@@@@@@@@@@@@@@@@@@@@@@@@@@@@@@@@@@@@@@@@@@@@@@@@@@@@@@@@@@@@@@@@@\n@@@@@@@@@@@@@@@:##########?@@@@@@@@@@@@@@@@@@@@@@@@@@@@@@@@@@@@@@@@@@@@@@@@@@@@@@@@@@@@@@@@@@@@@@@@@\n@@@@@@@@@@@@@@@:##########?@@@@@@@@@@@@@@@@@@@@@@@@@@@@@@@@@@@@@@@@@@@@@@@@@@@@@@@@@@@@@@@@@@@@@@@@@\n@@@@@@@@@@@@@@@:##########?@@@@@@@@@@@@@@@@@@@@@@@@@@@@@@@@@@@@@@@@@@@@@@@@@@@@@@@@@@@@@@@@@@@@@@@@@\n@@@@@@@@@@@@@@@:##########?@@@@@@@@@@@@@@@@@@@@@@@@@@@@@@@@@@@@@@@@@@@@@@@@@@@@@@@@@@@@@@@@@@@@@@@@@\n@@@@@@@@@@@@@@@:##########?@@@@@@@@@@@@@@@@@@@@@@@@@@@@@@@@@@@@@@@@@@@@@@@@@@@@@@@@@@@@@@@@@@@@@@@@@\n@@@@@@@@@@@@@@@:##########?@@@@@@@@@@@@@@@@@@@@@@@@@@@@@@@@@@@@@@@@@@@@@@@@@@@@@@@@@@@@@@@@@@@@@@@@@\n@@@@@@@@@@@@@@@:###########################################################:@@@@@@@@@@@@@@@@@@@@@@@@\n@@@@@@@@@@@@@@@:###########################################################:@@@@@@@@@@@@@@@@@@@@@@@@\n@@@@@@@@@@@@@@@:###########################################################:@@@@@@@@@@@@@@@@@@@@@@@@\n@@@@@@@@@@@@@@@:###########################################################:@@@@@@@@@@@@@@@@@@@@@@@@\n@@@@@@@@@@@@@@@:###########################################################:@@@@@@@@@@@@@@@@@@@@@@@@\n@@@@@@@@@@@@@@@:###########################################################:@@@@@@@@@@@@@@@@@@@@@@@@\n@@@@@@@@@@@@@@@:###########################################################:@@@@@@@@@@@@@@@@@@@@@@@@\n@@@@@@@@@@@@@@@:###########################################################:@@@@@@@@@@@@@@@@@@@@@@@@\n@@@@@@@@@@@@@@@:###########################################################:@@@@@@@@@@@@@@@@@@@@@@@@\n@@@@@@@@@@@@@@@:##########?************************************************,@@@@@@@@@@@@@@@@@@@@@@@@\n@@@@@@@@@@@@@@@:##########?@@@@@@@@@@@@@@@@@@@@@@@@@@@@@@@@@@@@@@@@@@@@@@@@@@@@@@@@@@@@@@@@@@@@@@@@@\n@@@@@@@@@@@@@@@:##########?@@@@@@@@@@@@@@@@@@@@@@@@@@@@@@@@@@@@@@@@@@@@@@@@@@@@@@@@@@@@@@@@@@@@@@@@@\n@@@@@@@@@@@@@@@:##########?@@@@@@@@@@@@@@@@@@@@@@@@@@@@@@@@@@@@@@@@@@@@@@@@@@@@@@@@@@@@@@@@@@@@@@@@@\n@@@@@@@@@@@@@@@:##########?@@@@@@@@@@@@@@@@@@@@@@@@@@@@@@@@@@@@@@@@@@@@@@@@@@@@@@@@@@@@@@@@@@@@@@@@@\n@@@@@@@@@@@@@@@:##########?@@@@@@@@@@@@@@@@@@@@@@@@@@@@@@@@@@@@@@@@@@@@@@@@@@@@@@@@@@@@@@@@@@@@@@@@@\n@@@@@@@@@@@@@@@:##########?@@@@@@@@@@@@@@@@@@@@@@@@@@@@@@@@@@@@@@@@@@@@@@@@@@@@@@@@@@@@@@@@@@@@@@@@@\n@@@@@@@@@@@@@@@:##########?@@@@@@@@@@@@@@@@@@@@@@@@@@@@@@@@@@@@@@@@@@@@@@@@@@@@@@@@@@@@@@@@@@@@@@@@@\n@@@@@@@@@@@@@@@:##########?@@@@@@@@@@@@@@@@@@@@@@@@@@@@@@@@@@@@@@@@@@@@@@@@@@@@@@@@@@@@@@@@@@@@@@@@@\n@@@@@@@@@@@@@@@:##########?@@@@@@@@@@@@@@@@@@@@@@@@@@@@@@@@@@@@@@@@@@@@@@@@@@@@@@@@@@@@@@@@@@@@@@@@@\n@@@@@@@@@@@@@@@:##########?@@@@@@@@@@@@@@@@@@@@@@@@@@@@@@@@@@@@@@@@@@@@@@@@@@@@@@@@@@@@@@@@@@@@@@@@@\n@@@@@@@@@@@@@@@:##########?@@@@@@@@@@@@@@@@@@@@@@@@@@@@@@@@@@@@@@@@@@@@@@@@@@@@@@@@@@@@@@@@@@@@@@@@@\n@@@@@@@@@@@@@@@:##########?@@@@@@@@@@@@@@@@@@@@@@@@@@@@@@@@@@@@@@@@@@@@@@@@@@@@@@@@@@@@@@@@@@@@@@@@@\n@@@@@@@@@@@@@@@:##########?@@@@@@@@@@@@@@@@@@@@@@@@@@@@@@@@@@@@@@@@@@@@@@@@@@@@@@@@@@@@@@@@@@@@@@@@@\n@@@@@@@@@@@@@@@:##########?@@@@@@@@@@@@@@@@@@@@@@@@@@@@@@@@@@@@@@@@@@@@@@@@@@@@@@@@@@@@@@@@@@@@@@@@@\n@@@@@@@@@@@@@@@:##########?@@@@@@@@@@@@@@@@@@@@@@@@@@@@@@@@@@@@@@@@@@@@@@@@@@@@@@@@@@@@@@@@@@@@@@@@@\n@@@@@@@@@@@@@@@:##########?@@@@@@@@@@@@@@@@@@@@@@@@@@@@@@@@@@@@@@@@@@@@@@@@@@@@@@@@@@@@@@@@@@@@@@@@@\n@@@@@@@@@@@@@@@:##########?@@@@@@@@@@@@@@@@@@@@@@@@@@@@@@@@@@@@@@@@@@@@@@@@@@@@@@@@@@@@@@@@@@@@@@@@@\n@@@@@@@@@@@@@@@:##########?@@@@@@@@@@@@@@@@@@@@@@@@@@@@@@@@@@@@@@@@@@@@@@@@@@@@@@@@@@@@@@@@@@@@@@@@@\n@@@@@@@@@@@@@@@:##########?@@@@@@@@@@@@@@@@@@@@@@@@@@@@@@@@@@@@@@@@@@@@@@@@@@@@@@@@@@@@@@@@@@@@@@@@@\n@@@@@@@@@@@@@@@:##########?@@@@@@@@@@@@@@@@@@@@@@@@@@@@@@@@@@@@@@@@@@@@@@@@@@@@@@@@@@@@@@@@@@@@@@@@@\n@@@@@@@@@@@@@@@:##########?@@@@@@@@@@@@@@@@@@@@@@@@@@@@@@@@@@@@@@@@@@@@@@@@@@@@@@@@@@@@@@@@@@@@@@@@@\n@@@@@@@@@@@@@@@:##########?@@@@@@@@@@@@@@@@@@@@@@@@@@@@@@@@@@@@@@@@@@@@@@@@@@@@@@@@@@@@@@@@@@@@@@@@@\n@@@@@@@@@@@@@@@:##########?@@@@@@@@@@@@@@@@@@@@@@@@@@@@@@@@@@@@@@@@@@@@@@@@@@@@@@@@@@@@@@@@@@@@@@@@@\n@@@@@@@@@@@@@@@:##########?@@@@@@@@@@@@@@@@@@@@@@@@@@@@@@@@@@@@@@@@@@@@@@@@@@@@@@@@@@@@@@@@@@@@@@@@@\n@@@@@@@@@@@@@@@:##########?@@@@@@@@@@@@@@@@@@@@@@@@@@@@@@@@@@@@@@@@@@@@@@@@@@@@@@@@@@@@@@@@@@@@@@@@@\n@@@@@@@@@@@@@@@:##########?@@@@@@@@@@@@@@@@@@@@@@@@@@@@@@@@@@@@@@@@@@@@@@@@@@@@@@@@@@@@@@@@@@@@@@@@@\n@@@@@@@@@@@@@@@:##########?@@@@@@@@@@@@@@@@@@@@@@@@@@@@@@@@@@@@@@@@@@@@@@@@@@@@@@@@@@@@@@@@@@@@@@@@@\n@@@@@@@@@@@@@@@:##########?@@@@@@@@@@@@@@@@@@@@@@@@@@@@@@@@@@@@@@@@@@@@@@@@@@@@@@@@@@@@@@@@@@@@@@@@@\n@@@@@@@@@@@@@@@:##########?......................................................@@@@@@@@@@@@@@@@@@@\n@@@@@@@@@@@@@@@:#################################################################@@@@@@@@@@@@@@@@@@@\n@@@@@@@@@@@@@@@:#################################################################@@@@@@@@@@@@@@@@@@@\n@@@@@@@@@@@@@@@:#################################################################@@@@@@@@@@@@@@@@@@@\n@@@@@@@@@@@@@@@:#################################################################@@@@@@@@@@@@@@@@@@@\n@@@@@@@@@@@@@@@:#################################################################@@@@@@@@@@@@@@@@@@@\n@@@@@@@@@@@@@@@:#################################################################@@@@@@@@@@@@@@@@@@@\n@@@@@@@@@@@@@@@:#################################################################@@@@@@@@@@@@@@@@@@@\n@@@@@@@@@@@@@@@:#################################################################@@@@@@@@@@@@@@@@@@@\n@@@@@@@@@@@@@@@:#################################################################@@@@@@@@@@@@@@@@@@@\n@@@@@@@@@@@@@@@@@@@@@@@@@@@@@@@@@@@@@@@@@@@@@@@@@@@@@@@@@@@@@@@@@@@@@@@@@@@@@@@@@@@@@@@@@@@@@@@@@@@@\n@@@@@@@@@@@@@@@@@@@@@@@@@@@@@@@@@@@@@@@@@@@@@@@@@@@@@@@@@@@@@@@@@@@@@@@@@@@@@@@@@@@@@@@@@@@@@@@@@@@@\n@@@@@@@@@@@@@@@@@@@@@@@@@@@@@@@@@@@@@@@@@@@@@@@@@@@@@@@@@@@@@@@@@@@@@@@@@@@@@@@@@@@@@@@@@@@@@@@@@@@@\n@@@@@@@@@@@@@@@@@@@@@@@@@@@@@@@@@@@@@@@@@@@@@@@@@@@@@@@@@@@@@@@@@@@@@@@@@@@@@@@@@@@@@@@@@@@@@@@@@@@@\n@@@@@@@@@@@@@@@@@@@@@@@@@@@@@@@@@@@@@@@@@@@@@@@@@@@@@@@@@@@@@@@@@@@@@@@@@@@@@@@@@@@@@@@@@@@@@@@@@@@@\n@@@@@@@@@@@@@@@@@@@@@@@@@@@@@@@@@@@@@@@@@@@@@@@@@@@@@@@@@@@@@@@@@@@@@@@@@@@@@@@@@@@@@@@@@@@@@@@@@@@@\n@@@@@@@@@@@@@@@@@@@@@@@@@@@@@@@@@@@@@@@@@@@@@@@@@@@@@@@@@@@@@@@@@@@@@@@@@@@@@@@@@@@@@@@@@@@@@@@@@@@@\n@@@@@@@@@@@@@@@@@@@@@@@@@@@@@@@@@@@@@@@@@@@@@@@@@@@@@@@@@@@@@@@@@@@@@@@@@@@@@@@@@@@@@@@@@@@@@@@@@@@@\n@@@@@@@@@@@@@@@@@@@@@@@@@@@@@@@@@@@@@@@@@@@@@@@@@@@@@@@@@@@@@@@@@@@@@@@@@@@@@@@@@@@@@@@@@@@@@@@@@@@@\n@@@@@@@@@@@@@@@@@@@@@@@@@@@@@@@@@@@@@@@@@@@@@@@@@@@@@@@@@@@@@@@@@@@@@@@@@@@@@@@@@@@@@@@@@@@@@@@@@@@@\n@@@@@@@@@@@@@@@@@@@@@@@@@@@@@@@@@@@@@@@@@@@@@@@@@@@@@@@@@@@@@@@@@@@@@@@@@@@@@@@@@@@@@@@@@@@@@@@@@@@@'
p8
aS'E'
p9
aa(lp10
S'@@@@@@@@@@@@@@@@@@@@@@@@@@@@@@@@@@@@@@@@@@@@@@@@@@@@@@@@@@@@@@@@@@@@@@@@@@@@@@@@@@@@@@@@@@@@@@@@@@@@\n@@@@@@@@@@@@@@@@@@@@@@@@@@@@@@@@@@@@@@@@@@@@@@@@@@@@@@@@@@@@@@@@@@@@@@@@@@@@@@@@@@@@@@@@@@@@@@@@@@@@\n@@@@@@@@@@@@@@@@@@@@@@@@@@@@@@@@@@@@@@@@@@@@@@@@@@@@@@@@@@@@@@@@@@@@@@@@@@@@@@@@@@@@@@@@@@@@@@@@@@@@\n@@@@@@@@@@@@@@@@@@@@@@@@@@@@@@@@@@@@@@@@@@@@@@@@@@@@@@@@@@@@@@@@@@@@@@@@@@@@@@@@@@@@@@@@@@@@@@@@@@@@\n@@@@@@@@@@@@@@@@@@@@@@@@@@@@@@@@@@@@@@@@@@@@@@@@@@@@@@@@@@@@@@@@@@@@@@@@@@@@@@@@@@@@@@@@@@@@@@@@@@@@\n@@@@@@@@@@@@@@@@@@@@@S##########??@@@@@@@@@@@@@@@@@@@@@@@@@@@@@@@@@@@@@**#############??,@@@@@@@@@@@\n@@@@@@@@@@@@@@@@@@@@@S##########??@@@@@@@@@@@@@@@@@@@@@@@@@@@@@@@@@@@@*##############?,,@@@@@@@@@@@@\n@@@@@@@@@@@@@@@@@@@@@S##########??@@@@@@@@@@@@@@@@@@@@@@@@@@@@@@@@@@@@*##############?,,@@@@@@@@@@@@\n@@@@@@@@@@@@@@@@@@@@@S##########??@@@@@@@@@@@@@@@@@@@@@@@@@@@@@@@@@@@.##############%,@@@@@@@@@@@@@@\n@@@@@@@@@@@@@@@@@@@@@S##########??@@@@@@@@@@@@@@@@@@@@@@@@@@@@@@@@@@+##############%,@@@@@@@@@@@@@@@\n@@@@@@@@@@@@@@@@@@@@@S##########??@@@@@@@@@@@@@@@@@@@@@@@@@@@@@@@@++#############..,@@@@@@@@@@@@@@@@\n@@@@@@@@@@@@@@@@@@@@@S##########??@@@@@@@@@@@@@@@@@@@@@@@@@@@@@@@S##############.@@@@@@@@@@@@@@@@@@@\n@@@@@@@@@@@@@@@@@@@@@S##########??@@@@@@@@@@@@@@@@@@@@@@@@@@@@@@S##############S@@@@@@@@@@@@@@@@@@@@\n@@@@@@@@@@@@@@@@@@@@@S##########??@@@@@@@@@@@@@@@@@@@@@@@@@@@@@@S##############S@@@@@@@@@@@@@@@@@@@@\n@@@@@@@@@@@@@@@@@@@@@S##########??@@@@@@@@@@@@@@@@@@@@@@@@@@@@@.##############S@@@@@@@@@@@@@@@@@@@@@\n@@@@@@@@@@@@@@@@@@@@@S##########??@@@@@@@@@@@@@@@@@@@@@@@@@@,..#############++@@@@@@@@@@@@@@@@@@@@@@\n@@@@@@@@@@@@@@@@@@@@@S##########??@@@@@@@@@@@@@@@@@@@@@@@@@,%##############.@@@@@@@@@@@@@@@@@@@@@@@@\n@@@@@@@@@@@@@@@@@@@@@S##########??@@@@@@@@@@@@@@@@@@@@@@@@,%##############.@@@@@@@@@@@@@@@@@@@@@@@@@\n@@@@@@@@@@@@@@@@@@@@@S##########??@@@@@@@@@@@@@@@@@@@@@@@@,%##############.@@@@@@@@@@@@@@@@@@@@@@@@@\n@@@@@@@@@@@@@@@@@@@@@S##########??@@@@@@@@@@@@@@@@@@@@@@,,?##############*@@@@@@@@@@@@@@@@@@@@@@@@@@\n@@@@@@@@@@@@@@@@@@@@@S##########??@@@@@@@@@@@@@@@@@@@@@,??#############**@@@@@@@@@@@@@@@@@@@@@@@@@@@\n@@@@@@@@@@@@@@@@@@@@@S##########??@@@@@@@@@@@@@@@@@@@@:?##############:@@@@@@@@@@@@@@@@@@@@@@@@@@@@@\n@@@@@@@@@@@@@@@@@@@@@S##########??@@@@@@@@@@@@@@@@@@@:##############?:@@@@@@@@@@@@@@@@@@@@@@@@@@@@@@\n@@@@@@@@@@@@@@@@@@@@@S##########??@@@@@@@@@@@@@@@@@@@:##############?:@@@@@@@@@@@@@@@@@@@@@@@@@@@@@@\n@@@@@@@@@@@@@@@@@@@@@S##########??@@@@@@@@@@@@@@@@@**#############??:@@@@@@@@@@@@@@@@@@@@@@@@@@@@@@@\n@@@@@@@@@@@@@@@@@@@@@S##########??@@@@@@@@@@@@@@@@*##############?,,@@@@@@@@@@@@@@@@@@@@@@@@@@@@@@@@\n@@@@@@@@@@@@@@@@@@@@@S##########??@@@@@@@@@@@@@@@*##############%,@@@@@@@@@@@@@@@@@@@@@@@@@@@@@@@@@@\n@@@@@@@@@@@@@@@@@@@@@S##########??@@@@@@@@@@@@@..##############%,@@@@@@@@@@@@@@@@@@@@@@@@@@@@@@@@@@@\n@@@@@@@@@@@@@@@@@@@@@S##########??@@@@@@@@@@@@@..##############%,@@@@@@@@@@@@@@@@@@@@@@@@@@@@@@@@@@@\n@@@@@@@@@@@@@@@@@@@@@S##########??@@@@@@@@@@@@.##############..,@@@@@@@@@@@@@@@@@@@@@@@@@@@@@@@@@@@@\n@@@@@@@@@@@@@@@@@@@@@S##########??@@@@@@@@@@@+##############.,,@@@@@@@@@@@@@@@@@@@@@@@@@@@@@@@@@@@@@\n@@@@@@@@@@@@@@@@@@@@@S##########??@@@@@@@@@@S##############S@@@@@@@@@@@@@@@@@@@@@@@@@@@@@@@@@@@@@@@@\n@@@@@@@@@@@@@@@@@@@@@S##########??@@@@@@@@SS##############S@@@@@@@@@@@@@@@@@@@@@@@@@@@@@@@@@@@@@@@@@\n@@@@@@@@@@@@@@@@@@@@@S##########??@@@@@@@@SS##############S@@@@@@@@@@@@@@@@@@@@@@@@@@@@@@@@@@@@@@@@@\n@@@@@@@@@@@@@@@@@@@@@S##########??@@@@@@@.##############++@@@@@@@@@@@@@@@@@@@@@@@@@@@@@@@@@@@@@@@@@@\n@@@@@@@@@@@@@@@@@@@@@S##########??@@@@@,.##############+@@@@@@@@@@@@@@@@@@@@@@@@@@@@@@@@@@@@@@@@@@@@\n@@@@@@@@@@@@@@@@@@@@@S##########??@@@,,%##############.@@@@@@@@@@@@@@@@@@@@@@@@@@@@@@@@@@@@@@@@@@@@@\n@@@@@@@@@@@@@@@@@@@@@S##########??@@,%%##############.@@@@@@@@@@@@@@@@@@@@@@@@@@@@@@@@@@@@@@@@@@@@@@\n@@@@@@@@@@@@@@@@@@@@@S##########??@@,%%##############.@@@@@@@@@@@@@@@@@@@@@@@@@@@@@@@@@@@@@@@@@@@@@@\n@@@@@@@@@@@@@@@@@@@@@S##########??@,?##############**@@@@@@@@@@@@@@@@@@@@@@@@@@@@@@@@@@@@@@@@@@@@@@@\n@@@@@@@@@@@@@@@@@@@@@S##########??,?##############*@@@@@@@@@@@@@@@@@@@@@@@@@@@@@@@@@@@@@@@@@@@@@@@@@\n@@@@@@@@@@@@@@@@@@@@@S############?##############:@@@@@@@@@@@@@@@@@@@@@@@@@@@@@@@@@@@@@@@@@@@@@@@@@@\n@@@@@@@@@@@@@@@@@@@@@S########################?::@@@@@@@@@@@@@@@@@@@@@@@@@@@@@@@@@@@@@@@@@@@@@@@@@@@\n@@@@@@@@@@@@@@@@@@@@@S########################?::@@@@@@@@@@@@@@@@@@@@@@@@@@@@@@@@@@@@@@@@@@@@@@@@@@@\n@@@@@@@@@@@@@@@@@@@@@S#######################?,@@@@@@@@@@@@@@@@@@@@@@@@@@@@@@@@@@@@@@@@@@@@@@@@@@@@@\n@@@@@@@@@@@@@@@@@@@@@S#######################,@@@@@@@@@@@@@@@@@@@@@@@@@@@@@@@@@@@@@@@@@@@@@@@@@@@@@@\n@@@@@@@@@@@@@@@@@@@@@S#######################S@@@@@@@@@@@@@@@@@@@@@@@@@@@@@@@@@@@@@@@@@@@@@@@@@@@@@@\n@@@@@@@@@@@@@@@@@@@@@S########################S@@@@@@@@@@@@@@@@@@@@@@@@@@@@@@@@@@@@@@@@@@@@@@@@@@@@@\n@@@@@@@@@@@@@@@@@@@@@S########################S@@@@@@@@@@@@@@@@@@@@@@@@@@@@@@@@@@@@@@@@@@@@@@@@@@@@@\n@@@@@@@@@@@@@@@@@@@@@S#########################SS@@@@@@@@@@@@@@@@@@@@@@@@@@@@@@@@@@@@@@@@@@@@@@@@@@@\n@@@@@@@@@@@@@@@@@@@@@S############?##############S@@@@@@@@@@@@@@@@@@@@@@@@@@@@@@@@@@@@@@@@@@@@@@@@@@\n@@@@@@@@@@@@@@@@@@@@@S##########??,?##############S@@@@@@@@@@@@@@@@@@@@@@@@@@@@@@@@@@@@@@@@@@@@@@@@@\n@@@@@@@@@@@@@@@@@@@@@S##########??,?##############S@@@@@@@@@@@@@@@@@@@@@@@@@@@@@@@@@@@@@@@@@@@@@@@@@\n@@@@@@@@@@@@@@@@@@@@@S##########??@,?##############SS@@@@@@@@@@@@@@@@@@@@@@@@@@@@@@@@@@@@@@@@@@@@@@@\n@@@@@@@@@@@@@@@@@@@@@S##########??@@,??##############S@@@@@@@@@@@@@@@@@@@@@@@@@@@@@@@@@@@@@@@@@@@@@@\n@@@@@@@@@@@@@@@@@@@@@S##########??@@@,,?##############S@@@@@@@@@@@@@@@@@@@@@@@@@@@@@@@@@@@@@@@@@@@@@\n@@@@@@@@@@@@@@@@@@@@@S##########??@@@@@,?##############S@@@@@@@@@@@@@@@@@@@@@@@@@@@@@@@@@@@@@@@@@@@@\n@@@@@@@@@@@@@@@@@@@@@S##########??@@@@@,?##############S@@@@@@@@@@@@@@@@@@@@@@@@@@@@@@@@@@@@@@@@@@@@\n@@@@@@@@@@@@@@@@@@@@@S##########??@@@@@@,?##############SS@@@@@@@@@@@@@@@@@@@@@@@@@@@@@@@@@@@@@@@@@@\n@@@@@@@@@@@@@@@@@@@@@S##########??@@@@@@@,??##############S@@@@@@@@@@@@@@@@@@@@@@@@@@@@@@@@@@@@@@@@@\n@@@@@@@@@@@@@@@@@@@@@S##########??@@@@@@@@,,?##############S@@@@@@@@@@@@@@@@@@@@@@@@@@@@@@@@@@@@@@@@\n@@@@@@@@@@@@@@@@@@@@@S##########??@@@@@@@@@@,?##############S@@@@@@@@@@@@@@@@@@@@@@@@@@@@@@@@@@@@@@@\n@@@@@@@@@@@@@@@@@@@@@S##########??@@@@@@@@@@,?##############S@@@@@@@@@@@@@@@@@@@@@@@@@@@@@@@@@@@@@@@\n@@@@@@@@@@@@@@@@@@@@@S##########??@@@@@@@@@@@,?##############SS@@@@@@@@@@@@@@@@@@@@@@@@@@@@@@@@@@@@@\n@@@@@@@@@@@@@@@@@@@@@S##########??@@@@@@@@@@@@,??##############S@@@@@@@@@@@@@@@@@@@@@@@@@@@@@@@@@@@@\n@@@@@@@@@@@@@@@@@@@@@S##########??@@@@@@@@@@@@@,,?##############S@@@@@@@@@@@@@@@@@@@@@@@@@@@@@@@@@@@\n@@@@@@@@@@@@@@@@@@@@@S##########??@@@@@@@@@@@@@@@,?##############S@@@@@@@@@@@@@@@@@@@@@@@@@@@@@@@@@@\n@@@@@@@@@@@@@@@@@@@@@S##########??@@@@@@@@@@@@@@@,?##############S@@@@@@@@@@@@@@@@@@@@@@@@@@@@@@@@@@\n@@@@@@@@@@@@@@@@@@@@@S##########??@@@@@@@@@@@@@@@@,??#############SS@@@@@@@@@@@@@@@@@@@@@@@@@@@@@@@@\n@@@@@@@@@@@@@@@@@@@@@S##########??@@@@@@@@@@@@@@@@@,,?##############S@@@@@@@@@@@@@@@@@@@@@@@@@@@@@@@\n@@@@@@@@@@@@@@@@@@@@@S##########??@@@@@@@@@@@@@@@@@@@,?##############S@@@@@@@@@@@@@@@@@@@@@@@@@@@@@@\n@@@@@@@@@@@@@@@@@@@@@S##########??@@@@@@@@@@@@@@@@@@@@,?##############S@@@@@@@@@@@@@@@@@@@@@@@@@@@@@\n@@@@@@@@@@@@@@@@@@@@@S##########??@@@@@@@@@@@@@@@@@@@@,?##############S@@@@@@@@@@@@@@@@@@@@@@@@@@@@@\n@@@@@@@@@@@@@@@@@@@@@S##########??@@@@@@@@@@@@@@@@@@@@@,??#############SS@@@@@@@@@@@@@@@@@@@@@@@@@@@\n@@@@@@@@@@@@@@@@@@@@@S##########??@@@@@@@@@@@@@@@@@@@@@@,,?##############S@@@@@@@@@@@@@@@@@@@@@@@@@@\n@@@@@@@@@@@@@@@@@@@@@S##########??@@@@@@@@@@@@@@@@@@@@@@@@,?##############S@@@@@@@@@@@@@@@@@@@@@@@@@\n@@@@@@@@@@@@@@@@@@@@@S##########??@@@@@@@@@@@@@@@@@@@@@@@@@,?##############S@@@@@@@@@@@@@@@@@@@@@@@@\n@@@@@@@@@@@@@@@@@@@@@S##########??@@@@@@@@@@@@@@@@@@@@@@@@@,?##############S@@@@@@@@@@@@@@@@@@@@@@@@\n@@@@@@@@@@@@@@@@@@@@@S##########??@@@@@@@@@@@@@@@@@@@@@@@@@@,??#############SS@@@@@@@@@@@@@@@@@@@@@@\n@@@@@@@@@@@@@@@@@@@@@S##########??@@@@@@@@@@@@@@@@@@@@@@@@@@@,,?##############+@@@@@@@@@@@@@@@@@@@@@\n@@@@@@@@@@@@@@@@@@@@@S##########??@@@@@@@@@@@@@@@@@@@@@@@@@@@@@,?##############+@@@@@@@@@@@@@@@@@@@@\n@@@@@@@@@@@@@@@@@@@@@S##########??@@@@@@@@@@@@@@@@@@@@@@@@@@@@@@,?##############+@@@@@@@@@@@@@@@@@@@\n@@@@@@@@@@@@@@@@@@@@@S##########??@@@@@@@@@@@@@@@@@@@@@@@@@@@@@@,?##############+@@@@@@@@@@@@@@@@@@@\n@@@@@@@@@@@@@@@@@@@@@S##########??@@@@@@@@@@@@@@@@@@@@@@@@@@@@@@@,??#############++@@@@@@@@@@@@@@@@@\n@@@@@@@@@@@@@@@@@@@@@S##########??@@@@@@@@@@@@@@@@@@@@@@@@@@@@@@@@::?##############+@@@@@@@@@@@@@@@@\n@@@@@@@@@@@@@@@@@@@@@S##########??@@@@@@@@@@@@@@@@@@@@@@@@@@@@@@@@@@:?##############+@@@@@@@@@@@@@@@\n@@@@@@@@@@@@@@@@@@@@@S##########??@@@@@@@@@@@@@@@@@@@@@@@@@@@@@@@@@@@:?##############+@@@@@@@@@@@@@@\n@@@@@@@@@@@@@@@@@@@@@S##########??@@@@@@@@@@@@@@@@@@@@@@@@@@@@@@@@@@@:?##############+@@@@@@@@@@@@@@\n@@@@@@@@@@@@@@@@@@@@@S##########??@@@@@@@@@@@@@@@@@@@@@@@@@@@@@@@@@@@@:??#############++@@@@@@@@@@@@\n@@@@@@@@@@@@@@@@@@@@@S##########??@@@@@@@@@@@@@@@@@@@@@@@@@@@@@@@@@@@@@::?##############+@@@@@@@@@@@\n@@@@@@@@@@@@@@@@@@@@@S##########??@@@@@@@@@@@@@@@@@@@@@@@@@@@@@@@@@@@@@@@:?##############+@@@@@@@@@@\n@@@@@@@@@@@@@@@@@@@@@S##########??@@@@@@@@@@@@@@@@@@@@@@@@@@@@@@@@@@@@@@@@:?##############+@@@@@@@@@\n@@@@@@@@@@@@@@@@@@@@@S##########??@@@@@@@@@@@@@@@@@@@@@@@@@@@@@@@@@@@@@@@@:?##############+@@@@@@@@@\n@@@@@@@@@@@@@@@@@@@@@@@@@@@@@@@@@@@@@@@@@@@@@@@@@@@@@@@@@@@@@@@@@@@@@@@@@@@@@@@@@@@@@@@@@@@@@@@@@@@@\n@@@@@@@@@@@@@@@@@@@@@@@@@@@@@@@@@@@@@@@@@@@@@@@@@@@@@@@@@@@@@@@@@@@@@@@@@@@@@@@@@@@@@@@@@@@@@@@@@@@@\n@@@@@@@@@@@@@@@@@@@@@@@@@@@@@@@@@@@@@@@@@@@@@@@@@@@@@@@@@@@@@@@@@@@@@@@@@@@@@@@@@@@@@@@@@@@@@@@@@@@@\n@@@@@@@@@@@@@@@@@@@@@@@@@@@@@@@@@@@@@@@@@@@@@@@@@@@@@@@@@@@@@@@@@@@@@@@@@@@@@@@@@@@@@@@@@@@@@@@@@@@@\n@@@@@@@@@@@@@@@@@@@@@@@@@@@@@@@@@@@@@@@@@@@@@@@@@@@@@@@@@@@@@@@@@@@@@@@@@@@@@@@@@@@@@@@@@@@@@@@@@@@@\n@@@@@@@@@@@@@@@@@@@@@@@@@@@@@@@@@@@@@@@@@@@@@@@@@@@@@@@@@@@@@@@@@@@@@@@@@@@@@@@@@@@@@@@@@@@@@@@@@@@@\n@@@@@@@@@@@@@@@@@@@@@@@@@@@@@@@@@@@@@@@@@@@@@@@@@@@@@@@@@@@@@@@@@@@@@@@@@@@@@@@@@@@@@@@@@@@@@@@@@@@@'
p11
aS'K'
p12
aa(lp13
S'@@@@@@@@@@@@@@@@@@@@@@@@@@@@@@@@@@@@@@@@@@@@@@@@@@@@@@@@@@@@@@@@@@@@@@@@@@@@@@@@@@@@@@@@@@@@@@@@@@@@\n@@@@@@@@@@@@@@@@@@@@@@@@@@@@@@@@@@@@@@@@@@@@@@@@@@@@@@@@@@@@@@@@@@@@@@@@@@@@@@@@@@@@@@@@@@@@@@@@@@@@\n@@@@@@@@@@@@@@@@@@@@@@@@@@@@@@@@@@@@@@@@@@@@@@@@@@@@@@@@@@@@@@@@@@@@@@@@@@@@@@@@@@@@@@@@@@@@@@@@@@@@\n@@@@@@@@@@@@@@@@@@@@@@@@@@@@@@@@@@@@@@@@@@@@@@@@@@@@@@@@@@@@@@@@@@@@@@@@@@@@@@@@@@@@@@@@@@@@@@@@@@@@\n@@@@@@@@@@@@@@@@@@@@@@@@@@@@@@@@@@@@@@@@@@@@@@@@@@@@@@@@@@@@@@@@@@@@@@@@@@@@@@@@@@@@@@@@@@@@@@@@@@@@\n@@@@@@@@@@@@@@@@@@@@@@@@@@@@@@@@@@@@@@@@@@@@@@@@@@@@@@@@@@@@@@@@@@@@@@@@@@@@@@@@@@@@@@@@@@@@@@@@@@@@\n@@@@@@@@@@S################%%@@@@@@@@@@@@@@@@@@@@@@@@@@@@@@@@@@@@@@@@@@@@?################+@@@@@@@@@\n@@@@@@@@@@S################%%@@@@@@@@@@@@@@@@@@@@@@@@@@@@@@@@@@@@@@@@@@@@?################+@@@@@@@@@\n@@@@@@@@@@S##################,@@@@@@@@@@@@@@@@@@@@@@@@@@@@@@@@@@@@@@@@@**#################+@@@@@@@@@\n@@@@@@@@@@S##################+@@@@@@@@@@@@@@@@@@@@@@@@@@@@@@@@@@@@@@@@@SS#################+@@@@@@@@@\n@@@@@@@@@@S##################?@@@@@@@@@@@@@@@@@@@@@@@@@@@@@@@@@@@@@@@@,###################+@@@@@@@@@\n@@@@@@@@@@S###################:@@@@@@@@@@@@@@@@@@@@@@@@@@@@@@@@@@@@@@@.###################+@@@@@@@@@\n@@@@@@@@@@S###################S@@@@@@@@@@@@@@@@@@@@@@@@@@@@@@@@@@@@@@@%###################+@@@@@@@@@\n@@@@@@@@@@S###################S@@@@@@@@@@@@@@@@@@@@@@@@@@@@@@@@@@@@@@@%###################+@@@@@@@@@\n@@@@@@@@@@S####################,@@@@@@@@@@@@@@@@@@@@@@@@@@@@@@@@@@@@@,####################+@@@@@@@@@\n@@@@@@@@@@S####################.@@@@@@@@@@@@@@@@@@@@@@@@@@@@@@@@@@@@@+####################+@@@@@@@@@\n@@@@@@@@@@S####################%@@@@@@@@@@@@@@@@@@@@@@@@@@@@@@@@@@@@@?####################+@@@@@@@@@\n@@@@@@@@@@S##########.##########,,@@@@@@@@@@@@@@@@@@@@@@@@@@@@@@@@@@*#########?%##########+@@@@@@@@@\n@@@@@@@@@@S##########.##########,,@@@@@@@@@@@@@@@@@@@@@@@@@@@@@@@@@@*#########?%##########+@@@@@@@@@\n@@@@@@@@@@S##########...########++@@@@@@@@@@@@@@@@@@@@@@@@@@@@@@@@@@.#########+%##########+@@@@@@@@@\n@@@@@@@@@@S##########.**########??@@@@@@@@@@@@@@@@@@@@@@@@@@@@@@@@,,##########,%##########+@@@@@@@@@\n@@@@@@@@@@S##########.@@?#########:@@@@@@@@@@@@@@@@@@@@@@@@@@@@@@@..########%%@%##########+@@@@@@@@@\n@@@@@@@@@@S##########.@@S#########S@@@@@@@@@@@@@@@@@@@@@@@@@@@@@@@%%########..@%##########+@@@@@@@@@\n@@@@@@@@@@S##########.@@S#########S@@@@@@@@@@@@@@@@@@@@@@@@@@@@@@@%%########..@%##########+@@@@@@@@@\n@@@@@@@@@@S##########.@@:##########,@@@@@@@@@@@@@@@@@@@@@@@@@@@@@:##########,,@%##########+@@@@@@@@@\n@@@@@@@@@@S##########.@@@%#########.@@@@@@@@@@@@@@@@@@@@@@@@@@@@@+#########S@@@%##########+@@@@@@@@@\n@@@@@@@@@@S##########.@@@.#########%@@@@@@@@@@@@@@@@@@@@@@@@@@@@@?#########*@@@%##########+@@@@@@@@@\n@@@@@@@@@@S##########.@@@,##########,@@@@@@@@@@@@@@@@@@@@@@@@@@@*#########?@@@@%##########+@@@@@@@@@\n@@@@@@@@@@S##########.@@@,##########,@@@@@@@@@@@@@@@@@@@@@@@@@@@*#########?@@@@%##########+@@@@@@@@@\n@@@@@@@@@@S##########.@@@@.#########+@@@@@@@@@@@@@@@@@@@@@@@@@@@.#########+@@@@%##########+@@@@@@@@@\n@@@@@@@@@@S##########.@@@@*#########?@@@@@@@@@@@@@@@@@@@@@@@@@@,##########,@@@@%##########+@@@@@@@@@\n@@@@@@@@@@S##########.@@@@@??########::@@@@@@@@@@@@@@@@@@@@@@@@.#########%@@@@@%##########+@@@@@@@@@\n@@@@@@@@@@S##########.@@@@@SS########SS@@@@@@@@@@@@@@@@@@@@@@@@%#########.@@@@@%##########+@@@@@@@@@\n@@@@@@@@@@S##########.@@@@@SS########SS@@@@@@@@@@@@@@@@@@@@@@@@%#########.@@@@@%##########+@@@@@@@@@\n@@@@@@@@@@S##########.@@@@@::##########,@@@@@@@@@@@@@@@@@@@@@::##########,@@@@@%##########+@@@@@@@@@\n@@@@@@@@@@S##########.@@@@@@@%#########.@@@@@@@@@@@@@@@@@@@@@SS########SS@@@@@@%##########+@@@@@@@@@\n@@@@@@@@@@S##########.@@@@@@@.#########%@@@@@@@@@@@@@@@@@@@@@??########**@@@@@@%##########+@@@@@@@@@\n@@@@@@@@@@S##########.@@@@@@@,##########,@@@@@@@@@@@@@@@@@@@*#########?@@@@@@@@%##########+@@@@@@@@@\n@@@@@@@@@@S##########.@@@@@@@,##########,@@@@@@@@@@@@@@@@@@@*#########?@@@@@@@@%##########+@@@@@@@@@\n@@@@@@@@@@S##########.@@@@@@@@.#########+@@@@@@@@@@@@@@@@@@@.#########+@@@@@@@@%##########+@@@@@@@@@\n@@@@@@@@@@S##########.@@@@@@@@*#########?@@@@@@@@@@@@@@@@@@,##########,@@@@@@@@%##########+@@@@@@@@@\n@@@@@@@@@@S##########.@@@@@@@@@?#########:@@@@@@@@@@@@@@@@@.#########%@@@@@@@@@%##########+@@@@@@@@@\n@@@@@@@@@@S##########.@@@@@@@@@S#########S@@@@@@@@@@@@@@@@@%#########.@@@@@@@@@%##########+@@@@@@@@@\n@@@@@@@@@@S##########.@@@@@@@@@S#########S@@@@@@@@@@@@@@@@@%#########.@@@@@@@@@%##########+@@@@@@@@@\n@@@@@@@@@@S##########.@@@@@@@@@:##########,,@@@@@@@@@@@@@@:##########,@@@@@@@@@%##########+@@@@@@@@@\n@@@@@@@@@@S##########.@@@@@@@@@@%%########..@@@@@@@@@@@@@@S#########S@@@@@@@@@@%##########+@@@@@@@@@\n@@@@@@@@@@S##########.@@@@@@@@@@..########%%@@@@@@@@@@@@@@?#########:@@@@@@@@@@%##########+@@@@@@@@@\n@@@@@@@@@@S##########.@@@@@@@@@@,,##########,@@@@@@@@@@@**########??@@@@@@@@@@@%##########+@@@@@@@@@\n@@@@@@@@@@S##########.@@@@@@@@@@,,##########,@@@@@@@@@@@**########??@@@@@@@@@@@%##########+@@@@@@@@@\n@@@@@@@@@@S##########.@@@@@@@@@@@@.#########+@@@@@@@@@@@..########++@@@@@@@@@@@%##########+@@@@@@@@@\n@@@@@@@@@@S##########.@@@@@@@@@@@@*#########?@@@@@@@@@@,##########,,@@@@@@@@@@@%##########+@@@@@@@@@\n@@@@@@@@@@S##########.@@@@@@@@@@@@@?#########:@@@@@@@@@+#########%@@@@@@@@@@@@@%##########+@@@@@@@@@\n@@@@@@@@@@S##########.@@@@@@@@@@@@@?#########:@@@@@@@@@+#########%@@@@@@@@@@@@@%##########+@@@@@@@@@\n@@@@@@@@@@S##########.@@@@@@@@@@@@@+#########S@@@@@@@@@%#########.@@@@@@@@@@@@@%##########+@@@@@@@@@\n@@@@@@@@@@S##########.@@@@@@@@@@@@@:##########,@@@@@@@:##########,@@@@@@@@@@@@@%##########+@@@@@@@@@\n@@@@@@@@@@S##########.@@@@@@@@@@@@@@%#########.@@@@@@@S#########S@@@@@@@@@@@@@@%##########+@@@@@@@@@\n@@@@@@@@@@S##########.@@@@@@@@@@@@@@.#########%@@@@@@@##########:@@@@@@@@@@@@@@%##########+@@@@@@@@@\n@@@@@@@@@@S##########.@@@@@@@@@@@@@@.#########%@@@@@@@##########:@@@@@@@@@@@@@@%##########+@@@@@@@@@\n@@@@@@@@@@S##########.@@@@@@@@@@@@@@,##########,,@@@@*#########?@@@@@@@@@@@@@@@%##########+@@@@@@@@@\n@@@@@@@@@@S##########.@@@@@@@@@@@@@@@..########++@@@@.#########+@@@@@@@@@@@@@@@%##########+@@@@@@@@@\n@@@@@@@@@@S##########.@@@@@@@@@@@@@@@**########??@@,,##########,@@@@@@@@@@@@@@@%##########+@@@@@@@@@\n@@@@@@@@@@S##########.@@@@@@@@@@@@@@@@@?#########:@++########..@@@@@@@@@@@@@@@@%##########+@@@@@@@@@\n@@@@@@@@@@S##########.@@@@@@@@@@@@@@@@@?#########:@++########..@@@@@@@@@@@@@@@@%##########+@@@@@@@@@\n@@@@@@@@@@S##########.@@@@@@@@@@@@@@@@@+#########S@??########..@@@@@@@@@@@@@@@@%##########+@@@@@@@@@\n@@@@@@@@@@S##########.@@@@@@@@@@@@@@@@@:##########:##########,,@@@@@@@@@@@@@@@@%##########+@@@@@@@@@\n@@@@@@@@@@S##########.@@@@@@@@@@@@@@@@@@%#########?#########S@@@@@@@@@@@@@@@@@@%##########+@@@@@@@@@\n@@@@@@@@@@S##########.@@@@@@@@@@@@@@@@@@.###################:@@@@@@@@@@@@@@@@@@%##########+@@@@@@@@@\n@@@@@@@@@@S##########.@@@@@@@@@@@@@@@@@@.###################:@@@@@@@@@@@@@@@@@@%##########+@@@@@@@@@\n@@@@@@@@@@S##########.@@@@@@@@@@@@@@@@@@,##################?@@@@@@@@@@@@@@@@@@@%##########+@@@@@@@@@\n@@@@@@@@@@S##########.@@@@@@@@@@@@@@@@@@@.#################+@@@@@@@@@@@@@@@@@@@%##########+@@@@@@@@@\n@@@@@@@@@@S##########.@@@@@@@@@@@@@@@@@@@*#################,@@@@@@@@@@@@@@@@@@@%##########+@@@@@@@@@\n@@@@@@@@@@S##########.@@@@@@@@@@@@@@@@@@@@??##############.@@@@@@@@@@@@@@@@@@@@%##########+@@@@@@@@@\n@@@@@@@@@@S##########.@@@@@@@@@@@@@@@@@@@@??##############.@@@@@@@@@@@@@@@@@@@@%##########+@@@@@@@@@\n@@@@@@@@@@S##########.@@@@@@@@@@@@@@@@@@@@++##############.@@@@@@@@@@@@@@@@@@@@%##########+@@@@@@@@@\n@@@@@@@@@@S##########.@@@@@@@@@@@@@@@@@@@@::##############,@@@@@@@@@@@@@@@@@@@@%##########+@@@@@@@@@\n@@@@@@@@@@S##########.@@@@@@@@@@@@@@@@@@@@@@%###########SS@@@@@@@@@@@@@@@@@@@@@%##########+@@@@@@@@@\n@@@@@@@@@@S##########.@@@@@@@@@@@@@@@@@@@@@@*SSSSSSSSSSS::@@@@@@@@@@@@@@@@@@@@@%##########+@@@@@@@@@\n@@@@@@@@@@S##########.@@@@@@@@@@@@@@@@@@@@@@*SSSSSSSSSSS::@@@@@@@@@@@@@@@@@@@@@%##########+@@@@@@@@@\n@@@@@@@@@@S##########.@@@@@@@@@@@@@@@@@@@@@@@@@@@@@@@@@@@@@@@@@@@@@@@@@@@@@@@@@%##########+@@@@@@@@@\n@@@@@@@@@@S##########.@@@@@@@@@@@@@@@@@@@@@@@@@@@@@@@@@@@@@@@@@@@@@@@@@@@@@@@@@%##########+@@@@@@@@@\n@@@@@@@@@@S##########.@@@@@@@@@@@@@@@@@@@@@@@@@@@@@@@@@@@@@@@@@@@@@@@@@@@@@@@@@%##########+@@@@@@@@@\n@@@@@@@@@@S##########.@@@@@@@@@@@@@@@@@@@@@@@@@@@@@@@@@@@@@@@@@@@@@@@@@@@@@@@@@%##########+@@@@@@@@@\n@@@@@@@@@@S##########.@@@@@@@@@@@@@@@@@@@@@@@@@@@@@@@@@@@@@@@@@@@@@@@@@@@@@@@@@%##########+@@@@@@@@@\n@@@@@@@@@@S##########.@@@@@@@@@@@@@@@@@@@@@@@@@@@@@@@@@@@@@@@@@@@@@@@@@@@@@@@@@%##########+@@@@@@@@@\n@@@@@@@@@@S##########.@@@@@@@@@@@@@@@@@@@@@@@@@@@@@@@@@@@@@@@@@@@@@@@@@@@@@@@@@%##########+@@@@@@@@@\n@@@@@@@@@@S##########.@@@@@@@@@@@@@@@@@@@@@@@@@@@@@@@@@@@@@@@@@@@@@@@@@@@@@@@@@%##########+@@@@@@@@@\n@@@@@@@@@@S##########.@@@@@@@@@@@@@@@@@@@@@@@@@@@@@@@@@@@@@@@@@@@@@@@@@@@@@@@@@%##########+@@@@@@@@@\n@@@@@@@@@@S##########.@@@@@@@@@@@@@@@@@@@@@@@@@@@@@@@@@@@@@@@@@@@@@@@@@@@@@@@@@%##########+@@@@@@@@@\n@@@@@@@@@@S##########.@@@@@@@@@@@@@@@@@@@@@@@@@@@@@@@@@@@@@@@@@@@@@@@@@@@@@@@@@%##########+@@@@@@@@@\n@@@@@@@@@@S##########.@@@@@@@@@@@@@@@@@@@@@@@@@@@@@@@@@@@@@@@@@@@@@@@@@@@@@@@@@%##########+@@@@@@@@@\n@@@@@@@@@@S##########.@@@@@@@@@@@@@@@@@@@@@@@@@@@@@@@@@@@@@@@@@@@@@@@@@@@@@@@@@%##########+@@@@@@@@@\n@@@@@@@@@@S##########.@@@@@@@@@@@@@@@@@@@@@@@@@@@@@@@@@@@@@@@@@@@@@@@@@@@@@@@@@%##########+@@@@@@@@@\n@@@@@@@@@@S##########.@@@@@@@@@@@@@@@@@@@@@@@@@@@@@@@@@@@@@@@@@@@@@@@@@@@@@@@@@%##########+@@@@@@@@@\n@@@@@@@@@@S##########.@@@@@@@@@@@@@@@@@@@@@@@@@@@@@@@@@@@@@@@@@@@@@@@@@@@@@@@@@%##########+@@@@@@@@@\n@@@@@@@@@@@@@@@@@@@@@@@@@@@@@@@@@@@@@@@@@@@@@@@@@@@@@@@@@@@@@@@@@@@@@@@@@@@@@@@@@@@@@@@@@@@@@@@@@@@@\n@@@@@@@@@@@@@@@@@@@@@@@@@@@@@@@@@@@@@@@@@@@@@@@@@@@@@@@@@@@@@@@@@@@@@@@@@@@@@@@@@@@@@@@@@@@@@@@@@@@@\n@@@@@@@@@@@@@@@@@@@@@@@@@@@@@@@@@@@@@@@@@@@@@@@@@@@@@@@@@@@@@@@@@@@@@@@@@@@@@@@@@@@@@@@@@@@@@@@@@@@@\n@@@@@@@@@@@@@@@@@@@@@@@@@@@@@@@@@@@@@@@@@@@@@@@@@@@@@@@@@@@@@@@@@@@@@@@@@@@@@@@@@@@@@@@@@@@@@@@@@@@@\n@@@@@@@@@@@@@@@@@@@@@@@@@@@@@@@@@@@@@@@@@@@@@@@@@@@@@@@@@@@@@@@@@@@@@@@@@@@@@@@@@@@@@@@@@@@@@@@@@@@@\n@@@@@@@@@@@@@@@@@@@@@@@@@@@@@@@@@@@@@@@@@@@@@@@@@@@@@@@@@@@@@@@@@@@@@@@@@@@@@@@@@@@@@@@@@@@@@@@@@@@@'
p14
aS'M'
p15
aa(lp16
S'@@@@@@@@@@@@@@@@@@@@@@@@@@@@@@@@@@@@@@@@@@@@@@@@@@@@@@@@@@@@@@@@@@@@@@@@@@@@@@@@@@@@@@@@@@@@@@@@@@@@\n@@@@@@@@@@@@@@@@@@@@@@@@@@@@@@@@@@@@@@@@@@@@@@@@@@@@@@@@@@@@@@@@@@@@@@@@@@@@@@@@@@@@@@@@@@@@@@@@@@@@\n@@@@@@@@@@@@@@@@@@@@@@@@@@@@@@@@@@@@@@@@@@@@@@@@@@@@@@@@@@@@@@@@@@@@@@@@@@@@@@@@@@@@@@@@@@@@@@@@@@@@\n@@@@@@@@@@@@@@@@@@@@@@@@@@@@@@@@@@@@@@@@@@@@@@@@@@@@@@@@@@@@@@@@@@@@@@@@@@@@@@@@@@@@@@@@@@@@@@@@@@@@\n@@@@@@@@@@@@@@@@@@@@@@@@@@@@@@@@@@@@@@@@@@@@@@@@@@@@@@@@@@@@@@@@@@@@@@@@@@@@@@@@@@@@@@@@@@@@@@@@@@@@\n@@@@@@@@@@@@@@@@@@@@@@@@@@@@@@@@@@@@@@@@@,::**....***:,@@@@@@@@@@@@@@@@@@@@@@@@@@@@@@@@@@@@@@@@@@@@@\n@@@@@@@@@@@@@@@@@@@@@@@@@@@@@@@@@@,*+..?################??..:@@@@@@@@@@@@@@@@@@@@@@@@@@@@@@@@@@@@@@@\n@@@@@@@@@@@@@@@@@@@@@@@@@@@@@@@@@@,*+..?################??..:@@@@@@@@@@@@@@@@@@@@@@@@@@@@@@@@@@@@@@@\n@@@@@@@@@@@@@@@@@@@@@@@@@@@@@@,...###########################??S*@@@@@@@@@@@@@@@@@@@@@@@@@@@@@@@@@@@\n@@@@@@@@@@@@@@@@@@@@@@@@@@@::.###################################?++,@@@@@@@@@@@@@@@@@@@@@@@@@@@@@@@\n@@@@@@@@@@@@@@@@@@@@@@@@@:%##########################################+,@@@@@@@@@@@@@@@@@@@@@@@@@@@@@\n@@@@@@@@@@@@@@@@@@@@@@,,S#############################################?..@@@@@@@@@@@@@@@@@@@@@@@@@@@\n@@@@@@@@@@@@@@@@@@@@@*??#################################################.,@@@@@@@@@@@@@@@@@@@@@@@@@\n@@@@@@@@@@@@@@@@@@@@@*??#################################################.,@@@@@@@@@@@@@@@@@@@@@@@@@\n@@@@@@@@@@@@@@@@@@@@+#####################################################?:@@@@@@@@@@@@@@@@@@@@@@@@\n@@@@@@@@@@@@@@@@@@@S###################%S.**:,,@@,,::*+.??##################**@@@@@@@@@@@@@@@@@@@@@@\n@@@@@@@@@@@@@@@@@..################%.,,@@@@@@@@@@@@@@@@@@@:S?#################*@@@@@@@@@@@@@@@@@@@@@\n@@@@@@@@@@@@@@@@S###############..:@@@@@@@@@@@@@@@@@@@@@@@@@@..?###############:@@@@@@@@@@@@@@@@@@@@\n@@@@@@@@@@@@@@@@S###############..:@@@@@@@@@@@@@@@@@@@@@@@@@@..?###############:@@@@@@@@@@@@@@@@@@@@\n@@@@@@@@@@@@@@@.##############%:@@@@@@@@@@@@@@@@@@@@@@@@@@@@@@@@+##############?,@@@@@@@@@@@@@@@@@@@\n@@@@@@@@@@@@@@:##############+@@@@@@@@@@@@@@@@@@@@@@@@@@@@@@@@@@@:??############%@@@@@@@@@@@@@@@@@@@\n@@@@@@@@@@@@,,?############..@@@@@@@@@@@@@@@@@@@@@@@@@@@@@@@@@@@@@,,%############++@@@@@@@@@@@@@@@@@\n@@@@@@@@@@@@SS############*@@@@@@@@@@@@@@@@@@@@@@@@@@@@@@@@@@@@@@@@@,%#############:@@@@@@@@@@@@@@@@\n@@@@@@@@@@@@SS############*@@@@@@@@@@@@@@@@@@@@@@@@@@@@@@@@@@@@@@@@@,%#############:@@@@@@@@@@@@@@@@\n@@@@@@@@@@@,#############.@@@@@@@@@@@@@@@@@@@@@@@@@@@@@@@@@@@@@@@@@@@,?############.@@@@@@@@@@@@@@@@\n@@@@@@@@@@@S############S@@@@@@@@@@@@@@@@@@@@@@@@@@@@@@@@@@@@@@@@@@@@@:#############:@@@@@@@@@@@@@@@\n@@@@@@@@@@,###########??,@@@@@@@@@@@@@@@@@@@@@@@@@@@@@@@@@@@@@@@@@@@@@@++###########.@@@@@@@@@@@@@@@\n@@@@@@@@@@+###########..@@@@@@@@@@@@@@@@@@@@@@@@@@@@@@@@@@@@@@@@@@@@@@@@@?###########,@@@@@@@@@@@@@@\n@@@@@@@@@@+###########..@@@@@@@@@@@@@@@@@@@@@@@@@@@@@@@@@@@@@@@@@@@@@@@@@?###########,@@@@@@@@@@@@@@\n@@@@@@@@@@?##########%@@@@@@@@@@@@@@@@@@@@@@@@@@@@@@@@@@@@@@@@@@@@@@@@@@@*###########+@@@@@@@@@@@@@@\n@@@@@@@@@*###########*@@@@@@@@@@@@@@@@@@@@@@@@@@@@@@@@@@@@@@@@@@@@@@@@@@@@?##########?@@@@@@@@@@@@@@\n@@@@@@@@@S##########?@@@@@@@@@@@@@@@@@@@@@@@@@@@@@@@@@@@@@@@@@@@@@@@@@@@@@.###########::@@@@@@@@@@@@\n@@@@@@@@@?##########+@@@@@@@@@@@@@@@@@@@@@@@@@@@@@@@@@@@@@@@@@@@@@@@@@@@@@,###########++@@@@@@@@@@@@\n@@@@@@@@@?##########+@@@@@@@@@@@@@@@@@@@@@@@@@@@@@@@@@@@@@@@@@@@@@@@@@@@@@,###########++@@@@@@@@@@@@\n@@@@@@@@:###########:@@@@@@@@@@@@@@@@@@@@@@@@@@@@@@@@@@@@@@@@@@@@@@@@@@@@@@.##########%%@@@@@@@@@@@@\n@@@@@@@@.##########?@@@@@@@@@@@@@@@@@@@@@@@@@@@@@@@@@@@@@@@@@@@@@@@@@@@@@@@.############,@@@@@@@@@@@\n@@@@@@@@S##########.@@@@@@@@@@@@@@@@@@@@@@@@@@@@@@@@@@@@@@@@@@@@@@@@@@@@@@@,############:@@@@@@@@@@@\n@@@@@@@@%##########.@@@@@@@@@@@@@@@@@@@@@@@@@@@@@@@@@@@@@@@@@@@@@@@@@@@@@@@@??##########.@@@@@@@@@@@\n@@@@@@@@%##########.@@@@@@@@@@@@@@@@@@@@@@@@@@@@@@@@@@@@@@@@@@@@@@@@@@@@@@@@??##########.@@@@@@@@@@@\n@@@@@@@@###########*@@@@@@@@@@@@@@@@@@@@@@@@@@@@@@@@@@@@@@@@@@@@@@@@@@@@@@@@..##########S@@@@@@@@@@@\n@@@@@@,,###########,@@@@@@@@@@@@@@@@@@@@@@@@@@@@@@@@@@@@@@@@@@@@@@@@@@@@@@@@++##########.@@@@@@@@@@@\n@@@@@@::###########@@@@@@@@@@@@@@@@@@@@@@@@@@@@@@@@@@@@@@@@@@@@@@@@@@@@@@@@@..##########%@@@@@@@@@@@\n@@@@@@**#########??@@@@@@@@@@@@@@@@@@@@@@@@@@@@@@@@@@@@@@@@@@@@@@@@@@@@@@@@@**###########@@@@@@@@@@@\n@@@@@@**#########??@@@@@@@@@@@@@@@@@@@@@@@@@@@@@@@@@@@@@@@@@@@@@@@@@@@@@@@@@**###########@@@@@@@@@@@\n@@@@@@..#########%%@@@@@@@@@@@@@@@@@@@@@@@@@@@@@@@@@@@@@@@@@@@@@@@@@@@@@@@@@::###########@@@@@@@@@@@\n@@@@@@..#########..@@@@@@@@@@@@@@@@@@@@@@@@@@@@@@@@@@@@@@@@@@@@@@@@@@@@@@@@@::###########@@@@@@@@@@@\n@@@@@@++#########..@@@@@@@@@@@@@@@@@@@@@@@@@@@@@@@@@@@@@@@@@@@@@@@@@@@@@@@@@,,###########@@@@@@@@@@@\n@@@@@@++#########..@@@@@@@@@@@@@@@@@@@@@@@@@@@@@@@@@@@@@@@@@@@@@@@@@@@@@@@@@,,###########@@@@@@@@@@@\n@@@@@@++#########..@@@@@@@@@@@@@@@@@@@@@@@@@@@@@@@@@@@@@@@@@@@@@@@@@@@@@@@@@,,###########@@@@@@@@@@@\n@@@@@@++#########..@@@@@@@@@@@@@@@@@@@@@@@@@@@@@@@@@@@@@@@@@@@@@@@@@@@@@@@@@,,###########@@@@@@@@@@@\n@@@@@@..#########..@@@@@@@@@@@@@@@@@@@@@@@@@@@@@@@@@@@@@@@@@@@@@@@@@@@@@@@@@::###########@@@@@@@@@@@\n@@@@@@..#########%%@@@@@@@@@@@@@@@@@@@@@@@@@@@@@@@@@@@@@@@@@@@@@@@@@@@@@@@@@::###########@@@@@@@@@@@\n@@@@@@..#########%%@@@@@@@@@@@@@@@@@@@@@@@@@@@@@@@@@@@@@@@@@@@@@@@@@@@@@@@@@::###########@@@@@@@@@@@\n@@@@@@**#########??@@@@@@@@@@@@@@@@@@@@@@@@@@@@@@@@@@@@@@@@@@@@@@@@@@@@@@@@@**###########@@@@@@@@@@@\n@@@@@@::###########@@@@@@@@@@@@@@@@@@@@@@@@@@@@@@@@@@@@@@@@@@@@@@@@@@@@@@@@@..##########%@@@@@@@@@@@\n@@@@@@,,###########,@@@@@@@@@@@@@@@@@@@@@@@@@@@@@@@@@@@@@@@@@@@@@@@@@@@@@@@@++##########.@@@@@@@@@@@\n@@@@@@@@###########*@@@@@@@@@@@@@@@@@@@@@@@@@@@@@@@@@@@@@@@@@@@@@@@@@@@@@@@@..##########S@@@@@@@@@@@\n@@@@@@@@###########*@@@@@@@@@@@@@@@@@@@@@@@@@@@@@@@@@@@@@@@@@@@@@@@@@@@@@@@@..##########S@@@@@@@@@@@\n@@@@@@@@%##########.@@@@@@@@@@@@@@@@@@@@@@@@@@@@@@@@@@@@@@@@@@@@@@@@@@@@@@@@%%##########.@@@@@@@@@@@\n@@@@@@@@S##########.@@@@@@@@@@@@@@@@@@@@@@@@@@@@@@@@@@@@@@@@@@@@@@@@@@@@@@@,############:@@@@@@@@@@@\n@@@@@@@@+##########?@@@@@@@@@@@@@@@@@@@@@@@@@@@@@@@@@@@@@@@@@@@@@@@@@@@@@@@*############,@@@@@@@@@@@\n@@@@@@@@:###########:@@@@@@@@@@@@@@@@@@@@@@@@@@@@@@@@@@@@@@@@@@@@@@@@@@@@@@+##########%%@@@@@@@@@@@@\n@@@@@@@@:###########:@@@@@@@@@@@@@@@@@@@@@@@@@@@@@@@@@@@@@@@@@@@@@@@@@@@@@@+##########%%@@@@@@@@@@@@\n@@@@@@@@@###########+@@@@@@@@@@@@@@@@@@@@@@@@@@@@@@@@@@@@@@@@@@@@@@@@@@@@@@%##########++@@@@@@@@@@@@\n@@@@@@@@@.##########?@@@@@@@@@@@@@@@@@@@@@@@@@@@@@@@@@@@@@@@@@@@@@@@@@@@@@:###########::@@@@@@@@@@@@\n@@@@@@@@@.###########*@@@@@@@@@@@@@@@@@@@@@@@@@@@@@@@@@@@@@@@@@@@@@@@@@@@@S##########?@@@@@@@@@@@@@@\n@@@@@@@@@,###########%@@@@@@@@@@@@@@@@@@@@@@@@@@@@@@@@@@@@@@@@@@@@@@@@@@@,###########S@@@@@@@@@@@@@@\n@@@@@@@@@,###########%@@@@@@@@@@@@@@@@@@@@@@@@@@@@@@@@@@@@@@@@@@@@@@@@@@@,###########S@@@@@@@@@@@@@@\n@@@@@@@@@@S###########**@@@@@@@@@@@@@@@@@@@@@@@@@@@@@@@@@@@@@@@@@@@@@@@@@+###########:@@@@@@@@@@@@@@\n@@@@@@@@@@:###########??@@@@@@@@@@@@@@@@@@@@@@@@@@@@@@@@@@@@@@@@@@@@@@@,,###########.@@@@@@@@@@@@@@@\n@@@@@@@@@@@.############+@@@@@@@@@@@@@@@@@@@@@@@@@@@@@@@@@@@@@@@@@@@@@@..###########*@@@@@@@@@@@@@@@\n@@@@@@@@@@@:#############*@@@@@@@@@@@@@@@@@@@@@@@@@@@@@@@@@@@@@@@@@@@@.############.@@@@@@@@@@@@@@@@\n@@@@@@@@@@@:#############*@@@@@@@@@@@@@@@@@@@@@@@@@@@@@@@@@@@@@@@@@@@@.############.@@@@@@@@@@@@@@@@\n@@@@@@@@@@@@..###########?:@@@@@@@@@@@@@@@@@@@@@@@@@@@@@@@@@@@@@@@@@@:#############:@@@@@@@@@@@@@@@@\n@@@@@@@@@@@@,,############?,,@@@@@@@@@@@@@@@@@@@@@@@@@@@@@@@@@@@@@@@:############SS@@@@@@@@@@@@@@@@@\n@@@@@@@@@@@@@@.############??:@@@@@@@@@@@@@@@@@@@@@@@@@@@@@@@@@@@@::############?,,@@@@@@@@@@@@@@@@@\n@@@@@@@@@@@@@@@.##############.@@@@@@@@@@@@@@@@@@@@@@@@@@@@@@@@@@.##############:@@@@@@@@@@@@@@@@@@@\n@@@@@@@@@@@@@@@.##############.@@@@@@@@@@@@@@@@@@@@@@@@@@@@@@@@@@.##############:@@@@@@@@@@@@@@@@@@@\n@@@@@@@@@@@@@@@,?##############.::@@@@@@@@@@@@@@@@@@@@@@@@@@@@@:%##############*@@@@@@@@@@@@@@@@@@@@\n@@@@@@@@@@@@@@@@:??###############S:@@@@@@@@@@@@@@@@@@@@@@@@:..###############+@@@@@@@@@@@@@@@@@@@@@\n@@@@@@@@@@@@@@@@@::?################%..:@@@@@@@@@@@@@@@@::+%################++@@@@@@@@@@@@@@@@@@@@@@\n@@@@@@@@@@@@@@@@@@@:?###################?%SS+......++S%####################.@@@@@@@@@@@@@@@@@@@@@@@@\n@@@@@@@@@@@@@@@@@@@:?###################?%SS+......++S%####################.@@@@@@@@@@@@@@@@@@@@@@@@\n@@@@@@@@@@@@@@@@@@@@,.###################################################?*@@@@@@@@@@@@@@@@@@@@@@@@@\n@@@@@@@@@@@@@@@@@@@@@@++###############################################..,@@@@@@@@@@@@@@@@@@@@@@@@@@\n@@@@@@@@@@@@@@@@@@@@@@@@,.###########################################?*@@@@@@@@@@@@@@@@@@@@@@@@@@@@@\n@@@@@@@@@@@@@@@@@@@@@@@@@@*%%#####################################??+,@@@@@@@@@@@@@@@@@@@@@@@@@@@@@@\n@@@@@@@@@@@@@@@@@@@@@@@@@@*%%#####################################??+,@@@@@@@@@@@@@@@@@@@@@@@@@@@@@@\n@@@@@@@@@@@@@@@@@@@@@@@@@@@@@:.#################################%.@@@@@@@@@@@@@@@@@@@@@@@@@@@@@@@@@@\n@@@@@@@@@@@@@@@@@@@@@@@@@@@@@@@,...?########################%++,@@@@@@@@@@@@@@@@@@@@@@@@@@@@@@@@@@@@\n@@@@@@@@@@@@@@@@@@@@@@@@@@@@@@@@@@@@,..+S%???######??%.S..:@@@@@@@@@@@@@@@@@@@@@@@@@@@@@@@@@@@@@@@@@\n@@@@@@@@@@@@@@@@@@@@@@@@@@@@@@@@@@@@@@@@@@@@@@@@@@@@@@@@@@@@@@@@@@@@@@@@@@@@@@@@@@@@@@@@@@@@@@@@@@@@\n@@@@@@@@@@@@@@@@@@@@@@@@@@@@@@@@@@@@@@@@@@@@@@@@@@@@@@@@@@@@@@@@@@@@@@@@@@@@@@@@@@@@@@@@@@@@@@@@@@@@\n@@@@@@@@@@@@@@@@@@@@@@@@@@@@@@@@@@@@@@@@@@@@@@@@@@@@@@@@@@@@@@@@@@@@@@@@@@@@@@@@@@@@@@@@@@@@@@@@@@@@\n@@@@@@@@@@@@@@@@@@@@@@@@@@@@@@@@@@@@@@@@@@@@@@@@@@@@@@@@@@@@@@@@@@@@@@@@@@@@@@@@@@@@@@@@@@@@@@@@@@@@\n@@@@@@@@@@@@@@@@@@@@@@@@@@@@@@@@@@@@@@@@@@@@@@@@@@@@@@@@@@@@@@@@@@@@@@@@@@@@@@@@@@@@@@@@@@@@@@@@@@@@\n@@@@@@@@@@@@@@@@@@@@@@@@@@@@@@@@@@@@@@@@@@@@@@@@@@@@@@@@@@@@@@@@@@@@@@@@@@@@@@@@@@@@@@@@@@@@@@@@@@@@\n@@@@@@@@@@@@@@@@@@@@@@@@@@@@@@@@@@@@@@@@@@@@@@@@@@@@@@@@@@@@@@@@@@@@@@@@@@@@@@@@@@@@@@@@@@@@@@@@@@@@\n@@@@@@@@@@@@@@@@@@@@@@@@@@@@@@@@@@@@@@@@@@@@@@@@@@@@@@@@@@@@@@@@@@@@@@@@@@@@@@@@@@@@@@@@@@@@@@@@@@@@\n@@@@@@@@@@@@@@@@@@@@@@@@@@@@@@@@@@@@@@@@@@@@@@@@@@@@@@@@@@@@@@@@@@@@@@@@@@@@@@@@@@@@@@@@@@@@@@@@@@@@'
p17
aS'O'
p18
aa(lp19
S'@@@@@@@@@@@@@@@@@@@@@@@@@@@@@@@@@@@@@@@@@@@@@@@@@@@@@@@@@@@@@@@@@@@@@@@@@@@@@@@@@@@@@@@@@@@@@@@@@@@@\n@@@@@@@@@@@@@@@@@@@@@@@@@@@@@@@@@@@@@@@@@@@@@@@@@@@@@@@@@@@@@@@@@@@@@@@@@@@@@@@@@@@@@@@@@@@@@@@@@@@@\n@@@@@@@@@@@@@@@@@@@@@@@@@@@@@@@@@@@@@@@@@@@@@@@@@@@@@@@@@@@@@@@@@@@@@@@@@@@@@@@@@@@@@@@@@@@@@@@@@@@@\n@@@@@@@@@@@@@@@@@@@@@@@@@@@@@@@@@@@@@@@@@@@@@@@@@@@@@@@@@@@@@@@@@@@@@@@@@@@@@@@@@@@@@@@@@@@@@@@@@@@@\n@@@@@@@@@@@@@@@@@@@@@@@@@@@@@@@@@@@@@@@@@@@@@@@@@@@@@@@@@@@@@@@@@@@@@@@@@@@@@@@@@@@@@@@@@@@@@@@@@@@@\n@@@@@@@@@@@@@@@@@@@@@@@@@@@@@@@@@@@@@@@@@@@@@@@@@@@@@@@@@@@@@@@@@@@@@@@@@@@@@@@@@@@@@@@@@@@@@@@@@@@@\n@@@@@@@@@@@@@@@@@@@@@@@@@@@SS##############################?%..+*,@@@@@@@@@@@@@@@@@@@@@@@@@@@@@@@@@@\n@@@@@@@@@@@@@@@@@@@@@@@@@@@SS##############################?%..+*,@@@@@@@@@@@@@@@@@@@@@@@@@@@@@@@@@@\n@@@@@@@@@@@@@@@@@@@@@@@@@@@SS#####################################??S:@@@@@@@@@@@@@@@@@@@@@@@@@@@@@@\n@@@@@@@@@@@@@@@@@@@@@@@@@@@SS#########################################?..@@@@@@@@@@@@@@@@@@@@@@@@@@@\n@@@@@@@@@@@@@@@@@@@@@@@@@@@SS############################################?*@@@@@@@@@@@@@@@@@@@@@@@@@\n@@@@@@@@@@@@@@@@@@@@@@@@@@@SS##############################################S@@@@@@@@@@@@@@@@@@@@@@@@\n@@@@@@@@@@@@@@@@@@@@@@@@@@@SS###############################################%%,@@@@@@@@@@@@@@@@@@@@@\n@@@@@@@@@@@@@@@@@@@@@@@@@@@SS###############################################%%,@@@@@@@@@@@@@@@@@@@@@\n@@@@@@@@@@@@@@@@@@@@@@@@@@@SS#################################################%,@@@@@@@@@@@@@@@@@@@@\n@@@@@@@@@@@@@@@@@@@@@@@@@@@SS###########%%%%%%%%%%%%%%%???#####################.@@@@@@@@@@@@@@@@@@@@\n@@@@@@@@@@@@@@@@@@@@@@@@@@@SS##########?@@@@@@@@@@@@@@@@@@@,...#################.@@@@@@@@@@@@@@@@@@@\n@@@@@@@@@@@@@@@@@@@@@@@@@@@SS##########?@@@@@@@@@@@@@@@@@@@@@@@,+################,,@@@@@@@@@@@@@@@@@\n@@@@@@@@@@@@@@@@@@@@@@@@@@@SS##########?@@@@@@@@@@@@@@@@@@@@@@@,+################,,@@@@@@@@@@@@@@@@@\n@@@@@@@@@@@@@@@@@@@@@@@@@@@SS##########?@@@@@@@@@@@@@@@@@@@@@@@@@,%%#############++@@@@@@@@@@@@@@@@@\n@@@@@@@@@@@@@@@@@@@@@@@@@@@SS##########?@@@@@@@@@@@@@@@@@@@@@@@@@@,,.##############,@@@@@@@@@@@@@@@@\n@@@@@@@@@@@@@@@@@@@@@@@@@@@SS##########?@@@@@@@@@@@@@@@@@@@@@@@@@@@@,?#############.@@@@@@@@@@@@@@@@\n@@@@@@@@@@@@@@@@@@@@@@@@@@@SS##########?@@@@@@@@@@@@@@@@@@@@@@@@@@@@@:#############.@@@@@@@@@@@@@@@@\n@@@@@@@@@@@@@@@@@@@@@@@@@@@SS##########?@@@@@@@@@@@@@@@@@@@@@@@@@@@@@:#############.@@@@@@@@@@@@@@@@\n@@@@@@@@@@@@@@@@@@@@@@@@@@@SS##########?@@@@@@@@@@@@@@@@@@@@@@@@@@@@@@.############?@@@@@@@@@@@@@@@@\n@@@@@@@@@@@@@@@@@@@@@@@@@@@SS##########?@@@@@@@@@@@@@@@@@@@@@@@@@@@@@@*#############,@@@@@@@@@@@@@@@\n@@@@@@@@@@@@@@@@@@@@@@@@@@@SS##########?@@@@@@@@@@@@@@@@@@@@@@@@@@@@@@@#############*@@@@@@@@@@@@@@@\n@@@@@@@@@@@@@@@@@@@@@@@@@@@SS##########?@@@@@@@@@@@@@@@@@@@@@@@@@@@@@@@..###########+@@@@@@@@@@@@@@@\n@@@@@@@@@@@@@@@@@@@@@@@@@@@SS##########?@@@@@@@@@@@@@@@@@@@@@@@@@@@@@@@..###########+@@@@@@@@@@@@@@@\n@@@@@@@@@@@@@@@@@@@@@@@@@@@SS##########?@@@@@@@@@@@@@@@@@@@@@@@@@@@@@@@SS###########+@@@@@@@@@@@@@@@\n@@@@@@@@@@@@@@@@@@@@@@@@@@@SS##########?@@@@@@@@@@@@@@@@@@@@@@@@@@@@@@@++###########S@@@@@@@@@@@@@@@\n@@@@@@@@@@@@@@@@@@@@@@@@@@@SS##########?@@@@@@@@@@@@@@@@@@@@@@@@@@@@@@@..###########S@@@@@@@@@@@@@@@\n@@@@@@@@@@@@@@@@@@@@@@@@@@@SS##########?@@@@@@@@@@@@@@@@@@@@@@@@@@@@@@@..###########S@@@@@@@@@@@@@@@\n@@@@@@@@@@@@@@@@@@@@@@@@@@@SS##########?@@@@@@@@@@@@@@@@@@@@@@@@@@@@@@@..###########S@@@@@@@@@@@@@@@\n@@@@@@@@@@@@@@@@@@@@@@@@@@@SS##########?@@@@@@@@@@@@@@@@@@@@@@@@@@@@@@@++###########S@@@@@@@@@@@@@@@\n@@@@@@@@@@@@@@@@@@@@@@@@@@@SS##########?@@@@@@@@@@@@@@@@@@@@@@@@@@@@@@@SS###########+@@@@@@@@@@@@@@@\n@@@@@@@@@@@@@@@@@@@@@@@@@@@SS##########?@@@@@@@@@@@@@@@@@@@@@@@@@@@@@@@%%###########.@@@@@@@@@@@@@@@\n@@@@@@@@@@@@@@@@@@@@@@@@@@@SS##########?@@@@@@@@@@@@@@@@@@@@@@@@@@@@@@@#############*@@@@@@@@@@@@@@@\n@@@@@@@@@@@@@@@@@@@@@@@@@@@SS##########?@@@@@@@@@@@@@@@@@@@@@@@@@@@@@@@#############*@@@@@@@@@@@@@@@\n@@@@@@@@@@@@@@@@@@@@@@@@@@@SS##########?@@@@@@@@@@@@@@@@@@@@@@@@@@@@@@*#############,@@@@@@@@@@@@@@@\n@@@@@@@@@@@@@@@@@@@@@@@@@@@SS##########?@@@@@@@@@@@@@@@@@@@@@@@@@@@@@@%############?@@@@@@@@@@@@@@@@\n@@@@@@@@@@@@@@@@@@@@@@@@@@@SS##########?@@@@@@@@@@@@@@@@@@@@@@@@@@@@@*#############S@@@@@@@@@@@@@@@@\n@@@@@@@@@@@@@@@@@@@@@@@@@@@SS##########?@@@@@@@@@@@@@@@@@@@@@@@@@@@@,?#############*@@@@@@@@@@@@@@@@\n@@@@@@@@@@@@@@@@@@@@@@@@@@@SS##########?@@@@@@@@@@@@@@@@@@@@@@@@@@@@,?#############*@@@@@@@@@@@@@@@@\n@@@@@@@@@@@@@@@@@@@@@@@@@@@SS##########?@@@@@@@@@@@@@@@@@@@@@@@@@@,,%############??@@@@@@@@@@@@@@@@@\n@@@@@@@@@@@@@@@@@@@@@@@@@@@SS##########?@@@@@@@@@@@@@@@@@@@@@@@@@:??#############++@@@@@@@@@@@@@@@@@\n@@@@@@@@@@@@@@@@@@@@@@@@@@@SS##########?@@@@@@@@@@@@@@@@@@@@@@@,S###############?,,@@@@@@@@@@@@@@@@@\n@@@@@@@@@@@@@@@@@@@@@@@@@@@SS##########?@@@@@@@@@@@@@@@@@@,*+%%#################*@@@@@@@@@@@@@@@@@@@\n@@@@@@@@@@@@@@@@@@@@@@@@@@@SS##########?@@@@@@@@@@@@@@@@@@,*+%%#################*@@@@@@@@@@@@@@@@@@@\n@@@@@@@@@@@@@@@@@@@@@@@@@@@SS##################################################S@@@@@@@@@@@@@@@@@@@@\n@@@@@@@@@@@@@@@@@@@@@@@@@@@SS#################################################.@@@@@@@@@@@@@@@@@@@@@\n@@@@@@@@@@@@@@@@@@@@@@@@@@@SS###############################################..@@@@@@@@@@@@@@@@@@@@@@\n@@@@@@@@@@@@@@@@@@@@@@@@@@@SS###############################################..@@@@@@@@@@@@@@@@@@@@@@\n@@@@@@@@@@@@@@@@@@@@@@@@@@@SS##############################################+@@@@@@@@@@@@@@@@@@@@@@@@\n@@@@@@@@@@@@@@@@@@@@@@@@@@@SS############################################%:@@@@@@@@@@@@@@@@@@@@@@@@@\n@@@@@@@@@@@@@@@@@@@@@@@@@@@SS#########################################.**@@@@@@@@@@@@@@@@@@@@@@@@@@@\n@@@@@@@@@@@@@@@@@@@@@@@@@@@SS#####################################%%+,@@@@@@@@@@@@@@@@@@@@@@@@@@@@@@\n@@@@@@@@@@@@@@@@@@@@@@@@@@@SS#####################################%%+,@@@@@@@@@@@@@@@@@@@@@@@@@@@@@@\n@@@@@@@@@@@@@@@@@@@@@@@@@@@SS###########??????????????????%%.SS.:@@@@@@@@@@@@@@@@@@@@@@@@@@@@@@@@@@@\n@@@@@@@@@@@@@@@@@@@@@@@@@@@SS##########?@@@@@@@@@@@@@@@@@@@@@@@@@@@@@@@@@@@@@@@@@@@@@@@@@@@@@@@@@@@@\n@@@@@@@@@@@@@@@@@@@@@@@@@@@SS##########?@@@@@@@@@@@@@@@@@@@@@@@@@@@@@@@@@@@@@@@@@@@@@@@@@@@@@@@@@@@@\n@@@@@@@@@@@@@@@@@@@@@@@@@@@SS##########?@@@@@@@@@@@@@@@@@@@@@@@@@@@@@@@@@@@@@@@@@@@@@@@@@@@@@@@@@@@@\n@@@@@@@@@@@@@@@@@@@@@@@@@@@SS##########?@@@@@@@@@@@@@@@@@@@@@@@@@@@@@@@@@@@@@@@@@@@@@@@@@@@@@@@@@@@@\n@@@@@@@@@@@@@@@@@@@@@@@@@@@SS##########?@@@@@@@@@@@@@@@@@@@@@@@@@@@@@@@@@@@@@@@@@@@@@@@@@@@@@@@@@@@@\n@@@@@@@@@@@@@@@@@@@@@@@@@@@SS##########?@@@@@@@@@@@@@@@@@@@@@@@@@@@@@@@@@@@@@@@@@@@@@@@@@@@@@@@@@@@@\n@@@@@@@@@@@@@@@@@@@@@@@@@@@SS##########?@@@@@@@@@@@@@@@@@@@@@@@@@@@@@@@@@@@@@@@@@@@@@@@@@@@@@@@@@@@@\n@@@@@@@@@@@@@@@@@@@@@@@@@@@SS##########?@@@@@@@@@@@@@@@@@@@@@@@@@@@@@@@@@@@@@@@@@@@@@@@@@@@@@@@@@@@@\n@@@@@@@@@@@@@@@@@@@@@@@@@@@SS##########?@@@@@@@@@@@@@@@@@@@@@@@@@@@@@@@@@@@@@@@@@@@@@@@@@@@@@@@@@@@@\n@@@@@@@@@@@@@@@@@@@@@@@@@@@SS##########?@@@@@@@@@@@@@@@@@@@@@@@@@@@@@@@@@@@@@@@@@@@@@@@@@@@@@@@@@@@@\n@@@@@@@@@@@@@@@@@@@@@@@@@@@SS##########?@@@@@@@@@@@@@@@@@@@@@@@@@@@@@@@@@@@@@@@@@@@@@@@@@@@@@@@@@@@@\n@@@@@@@@@@@@@@@@@@@@@@@@@@@SS##########?@@@@@@@@@@@@@@@@@@@@@@@@@@@@@@@@@@@@@@@@@@@@@@@@@@@@@@@@@@@@\n@@@@@@@@@@@@@@@@@@@@@@@@@@@SS##########?@@@@@@@@@@@@@@@@@@@@@@@@@@@@@@@@@@@@@@@@@@@@@@@@@@@@@@@@@@@@\n@@@@@@@@@@@@@@@@@@@@@@@@@@@SS##########?@@@@@@@@@@@@@@@@@@@@@@@@@@@@@@@@@@@@@@@@@@@@@@@@@@@@@@@@@@@@\n@@@@@@@@@@@@@@@@@@@@@@@@@@@SS##########?@@@@@@@@@@@@@@@@@@@@@@@@@@@@@@@@@@@@@@@@@@@@@@@@@@@@@@@@@@@@\n@@@@@@@@@@@@@@@@@@@@@@@@@@@SS##########?@@@@@@@@@@@@@@@@@@@@@@@@@@@@@@@@@@@@@@@@@@@@@@@@@@@@@@@@@@@@\n@@@@@@@@@@@@@@@@@@@@@@@@@@@SS##########?@@@@@@@@@@@@@@@@@@@@@@@@@@@@@@@@@@@@@@@@@@@@@@@@@@@@@@@@@@@@\n@@@@@@@@@@@@@@@@@@@@@@@@@@@SS##########?@@@@@@@@@@@@@@@@@@@@@@@@@@@@@@@@@@@@@@@@@@@@@@@@@@@@@@@@@@@@\n@@@@@@@@@@@@@@@@@@@@@@@@@@@SS##########?@@@@@@@@@@@@@@@@@@@@@@@@@@@@@@@@@@@@@@@@@@@@@@@@@@@@@@@@@@@@\n@@@@@@@@@@@@@@@@@@@@@@@@@@@SS##########?@@@@@@@@@@@@@@@@@@@@@@@@@@@@@@@@@@@@@@@@@@@@@@@@@@@@@@@@@@@@\n@@@@@@@@@@@@@@@@@@@@@@@@@@@SS##########?@@@@@@@@@@@@@@@@@@@@@@@@@@@@@@@@@@@@@@@@@@@@@@@@@@@@@@@@@@@@\n@@@@@@@@@@@@@@@@@@@@@@@@@@@SS##########?@@@@@@@@@@@@@@@@@@@@@@@@@@@@@@@@@@@@@@@@@@@@@@@@@@@@@@@@@@@@\n@@@@@@@@@@@@@@@@@@@@@@@@@@@SS##########?@@@@@@@@@@@@@@@@@@@@@@@@@@@@@@@@@@@@@@@@@@@@@@@@@@@@@@@@@@@@\n@@@@@@@@@@@@@@@@@@@@@@@@@@@SS##########?@@@@@@@@@@@@@@@@@@@@@@@@@@@@@@@@@@@@@@@@@@@@@@@@@@@@@@@@@@@@\n@@@@@@@@@@@@@@@@@@@@@@@@@@@SS##########?@@@@@@@@@@@@@@@@@@@@@@@@@@@@@@@@@@@@@@@@@@@@@@@@@@@@@@@@@@@@\n@@@@@@@@@@@@@@@@@@@@@@@@@@@SS##########?@@@@@@@@@@@@@@@@@@@@@@@@@@@@@@@@@@@@@@@@@@@@@@@@@@@@@@@@@@@@\n@@@@@@@@@@@@@@@@@@@@@@@@@@@SS##########?@@@@@@@@@@@@@@@@@@@@@@@@@@@@@@@@@@@@@@@@@@@@@@@@@@@@@@@@@@@@\n@@@@@@@@@@@@@@@@@@@@@@@@@@@SS##########?@@@@@@@@@@@@@@@@@@@@@@@@@@@@@@@@@@@@@@@@@@@@@@@@@@@@@@@@@@@@\n@@@@@@@@@@@@@@@@@@@@@@@@@@@SS##########?@@@@@@@@@@@@@@@@@@@@@@@@@@@@@@@@@@@@@@@@@@@@@@@@@@@@@@@@@@@@\n@@@@@@@@@@@@@@@@@@@@@@@@@@@SS##########?@@@@@@@@@@@@@@@@@@@@@@@@@@@@@@@@@@@@@@@@@@@@@@@@@@@@@@@@@@@@\n@@@@@@@@@@@@@@@@@@@@@@@@@@@SS##########?@@@@@@@@@@@@@@@@@@@@@@@@@@@@@@@@@@@@@@@@@@@@@@@@@@@@@@@@@@@@\n@@@@@@@@@@@@@@@@@@@@@@@@@@@SS##########?@@@@@@@@@@@@@@@@@@@@@@@@@@@@@@@@@@@@@@@@@@@@@@@@@@@@@@@@@@@@\n@@@@@@@@@@@@@@@@@@@@@@@@@@@SS##########?@@@@@@@@@@@@@@@@@@@@@@@@@@@@@@@@@@@@@@@@@@@@@@@@@@@@@@@@@@@@\n@@@@@@@@@@@@@@@@@@@@@@@@@@@SS##########?@@@@@@@@@@@@@@@@@@@@@@@@@@@@@@@@@@@@@@@@@@@@@@@@@@@@@@@@@@@@\n@@@@@@@@@@@@@@@@@@@@@@@@@@@SS##########?@@@@@@@@@@@@@@@@@@@@@@@@@@@@@@@@@@@@@@@@@@@@@@@@@@@@@@@@@@@@\n@@@@@@@@@@@@@@@@@@@@@@@@@@@@@@@@@@@@@@@@@@@@@@@@@@@@@@@@@@@@@@@@@@@@@@@@@@@@@@@@@@@@@@@@@@@@@@@@@@@@\n@@@@@@@@@@@@@@@@@@@@@@@@@@@@@@@@@@@@@@@@@@@@@@@@@@@@@@@@@@@@@@@@@@@@@@@@@@@@@@@@@@@@@@@@@@@@@@@@@@@@\n@@@@@@@@@@@@@@@@@@@@@@@@@@@@@@@@@@@@@@@@@@@@@@@@@@@@@@@@@@@@@@@@@@@@@@@@@@@@@@@@@@@@@@@@@@@@@@@@@@@@\n@@@@@@@@@@@@@@@@@@@@@@@@@@@@@@@@@@@@@@@@@@@@@@@@@@@@@@@@@@@@@@@@@@@@@@@@@@@@@@@@@@@@@@@@@@@@@@@@@@@@\n@@@@@@@@@@@@@@@@@@@@@@@@@@@@@@@@@@@@@@@@@@@@@@@@@@@@@@@@@@@@@@@@@@@@@@@@@@@@@@@@@@@@@@@@@@@@@@@@@@@@\n@@@@@@@@@@@@@@@@@@@@@@@@@@@@@@@@@@@@@@@@@@@@@@@@@@@@@@@@@@@@@@@@@@@@@@@@@@@@@@@@@@@@@@@@@@@@@@@@@@@@'
p20
aS'P'
p21
aa(lp22
S'@@@@@@@@@@@@@@@@@@@@@@@@@@@@@@@@@@@@@@@@@@@@@@@@@@@@@@@@@@@@@@@@@@@@@@@@@@@@@@@@@@@@@@@@@@@@@@@@@@@@\n@@@@@@@@@@@@@@@@@@@@@@@@@@@@@@@@@@@@@@@@@@@@@@@@@@@@@@@@@@@@@@@@@@@@@@@@@@@@@@@@@@@@@@@@@@@@@@@@@@@@\n@@@@@@@@@@@@@@@@@@@@@@@@@@@@@@@@@@@@@@@@@@@@@@@@@@@@@@@@@@@@@@@@@@@@@@@@@@@@@@@@@@@@@@@@@@@@@@@@@@@@\n@@@@@@@@@@@@@@@@@@@@@@@@@@@@@@@@@@@@@@@@@@@@@@@@@@@@@@@@@@@@@@@@@@@@@@@@@@@@@@@@@@@@@@@@@@@@@@@@@@@@\n@@@@@@@@@@@@@@@@@@@@@@@@@@@@@@@@@@@@@@@@@@@@@@@@@@@@@@@@@@@@@@@@@@@@@@@@@@@@@@@@@@@@@@@@@@@@@@@@@@@@\n@@@@@@@@@@@@@@@@@@@@@@@@@@@@@@@@@@@@@@@@@@@@@@@@@@@@@@@@@@@@@@@@@@@@@@@@@@@@@@@@@@@@@@@@@@@@@@@@@@@@\n@@@@@@@@@@@@@@*++++++++++:@@@@@@@@@@@@@@@@@@@@@@@@@@@@@@@@@@@@@@@@@@@@@++++++++++++@@@@@@@@@@@@@@@@@\n@@@@@@@@@@@@@@*++++++++++:@@@@@@@@@@@@@@@@@@@@@@@@@@@@@@@@@@@@@@@@@@@@@++++++++++++@@@@@@@@@@@@@@@@@\n@@@@@@@@@@@@@@S##########.@@@@@@@@@@@@@@@@@@@@@@@@@@@@@@@@@@@@@@@@@@@@@############@@@@@@@@@@@@@@@@@\n@@@@@@@@@@@@@@S##########.@@@@@@@@@@@@@@@@@@@@@@@@@@@@@@@@@@@@@@@@@@@@@############@@@@@@@@@@@@@@@@@\n@@@@@@@@@@@@@@S##########.@@@@@@@@@@@@@@@@@@@@@@@@@@@@@@@@@@@@@@@@@@@@@############@@@@@@@@@@@@@@@@@\n@@@@@@@@@@@@@@S##########.@@@@@@@@@@@@@@@@@@@@@@@@@@@@@@@@@@@@@@@@@@@@@############@@@@@@@@@@@@@@@@@\n@@@@@@@@@@@@@@S##########.@@@@@@@@@@@@@@@@@@@@@@@@@@@@@@@@@@@@@@@@@@@@@############@@@@@@@@@@@@@@@@@\n@@@@@@@@@@@@@@S##########.@@@@@@@@@@@@@@@@@@@@@@@@@@@@@@@@@@@@@@@@@@@@@############@@@@@@@@@@@@@@@@@\n@@@@@@@@@@@@@@S##########.@@@@@@@@@@@@@@@@@@@@@@@@@@@@@@@@@@@@@@@@@@@@@############@@@@@@@@@@@@@@@@@\n@@@@@@@@@@@@@@S##########.@@@@@@@@@@@@@@@@@@@@@@@@@@@@@@@@@@@@@@@@@@@@@############@@@@@@@@@@@@@@@@@\n@@@@@@@@@@@@@@S##########.@@@@@@@@@@@@@@@@@@@@@@@@@@@@@@@@@@@@@@@@@@@@@############@@@@@@@@@@@@@@@@@\n@@@@@@@@@@@@@@S##########.@@@@@@@@@@@@@@@@@@@@@@@@@@@@@@@@@@@@@@@@@@@@@############@@@@@@@@@@@@@@@@@\n@@@@@@@@@@@@@@S##########.@@@@@@@@@@@@@@@@@@@@@@@@@@@@@@@@@@@@@@@@@@@@@############@@@@@@@@@@@@@@@@@\n@@@@@@@@@@@@@@S##########.@@@@@@@@@@@@@@@@@@@@@@@@@@@@@@@@@@@@@@@@@@@@@############@@@@@@@@@@@@@@@@@\n@@@@@@@@@@@@@@S##########.@@@@@@@@@@@@@@@@@@@@@@@@@@@@@@@@@@@@@@@@@@@@@############@@@@@@@@@@@@@@@@@\n@@@@@@@@@@@@@@S##########.@@@@@@@@@@@@@@@@@@@@@@@@@@@@@@@@@@@@@@@@@@@@@############@@@@@@@@@@@@@@@@@\n@@@@@@@@@@@@@@S##########.@@@@@@@@@@@@@@@@@@@@@@@@@@@@@@@@@@@@@@@@@@@@@############@@@@@@@@@@@@@@@@@\n@@@@@@@@@@@@@@S##########.@@@@@@@@@@@@@@@@@@@@@@@@@@@@@@@@@@@@@@@@@@@@@############@@@@@@@@@@@@@@@@@\n@@@@@@@@@@@@@@S##########.@@@@@@@@@@@@@@@@@@@@@@@@@@@@@@@@@@@@@@@@@@@@@############@@@@@@@@@@@@@@@@@\n@@@@@@@@@@@@@@S##########.@@@@@@@@@@@@@@@@@@@@@@@@@@@@@@@@@@@@@@@@@@@@@############@@@@@@@@@@@@@@@@@\n@@@@@@@@@@@@@@S##########.@@@@@@@@@@@@@@@@@@@@@@@@@@@@@@@@@@@@@@@@@@@@@############@@@@@@@@@@@@@@@@@\n@@@@@@@@@@@@@@S##########.@@@@@@@@@@@@@@@@@@@@@@@@@@@@@@@@@@@@@@@@@@@@@############@@@@@@@@@@@@@@@@@\n@@@@@@@@@@@@@@S##########.@@@@@@@@@@@@@@@@@@@@@@@@@@@@@@@@@@@@@@@@@@@@@############@@@@@@@@@@@@@@@@@\n@@@@@@@@@@@@@@S##########.@@@@@@@@@@@@@@@@@@@@@@@@@@@@@@@@@@@@@@@@@@@@@############@@@@@@@@@@@@@@@@@\n@@@@@@@@@@@@@@S##########.@@@@@@@@@@@@@@@@@@@@@@@@@@@@@@@@@@@@@@@@@@@@@############@@@@@@@@@@@@@@@@@\n@@@@@@@@@@@@@@S##########.@@@@@@@@@@@@@@@@@@@@@@@@@@@@@@@@@@@@@@@@@@@@@############@@@@@@@@@@@@@@@@@\n@@@@@@@@@@@@@@S##########.@@@@@@@@@@@@@@@@@@@@@@@@@@@@@@@@@@@@@@@@@@@@@############@@@@@@@@@@@@@@@@@\n@@@@@@@@@@@@@@S##########.@@@@@@@@@@@@@@@@@@@@@@@@@@@@@@@@@@@@@@@@@@@@@############@@@@@@@@@@@@@@@@@\n@@@@@@@@@@@@@@S##########.@@@@@@@@@@@@@@@@@@@@@@@@@@@@@@@@@@@@@@@@@@@@@############@@@@@@@@@@@@@@@@@\n@@@@@@@@@@@@@@S##########.@@@@@@@@@@@@@@@@@@@@@@@@@@@@@@@@@@@@@@@@@@@@@############@@@@@@@@@@@@@@@@@\n@@@@@@@@@@@@@@S##########.@@@@@@@@@@@@@@@@@@@@@@@@@@@@@@@@@@@@@@@@@@@@@############@@@@@@@@@@@@@@@@@\n@@@@@@@@@@@@@@S##########.@@@@@@@@@@@@@@@@@@@@@@@@@@@@@@@@@@@@@@@@@@@@@############@@@@@@@@@@@@@@@@@\n@@@@@@@@@@@@@@S##########.@@@@@@@@@@@@@@@@@@@@@@@@@@@@@@@@@@@@@@@@@@@@@############@@@@@@@@@@@@@@@@@\n@@@@@@@@@@@@@@S##########.@@@@@@@@@@@@@@@@@@@@@@@@@@@@@@@@@@@@@@@@@@@@@############@@@@@@@@@@@@@@@@@\n@@@@@@@@@@@@@@S##########.@@@@@@@@@@@@@@@@@@@@@@@@@@@@@@@@@@@@@@@@@@@@@############@@@@@@@@@@@@@@@@@\n@@@@@@@@@@@@@@S##########.@@@@@@@@@@@@@@@@@@@@@@@@@@@@@@@@@@@@@@@@@@@@@############@@@@@@@@@@@@@@@@@\n@@@@@@@@@@@@@@S##########.@@@@@@@@@@@@@@@@@@@@@@@@@@@@@@@@@@@@@@@@@@@@@############@@@@@@@@@@@@@@@@@\n@@@@@@@@@@@@@@S##########.@@@@@@@@@@@@@@@@@@@@@@@@@@@@@@@@@@@@@@@@@@@@@############@@@@@@@@@@@@@@@@@\n@@@@@@@@@@@@@@S##########.@@@@@@@@@@@@@@@@@@@@@@@@@@@@@@@@@@@@@@@@@@@@@############@@@@@@@@@@@@@@@@@\n@@@@@@@@@@@@@@S##########.@@@@@@@@@@@@@@@@@@@@@@@@@@@@@@@@@@@@@@@@@@@@@############@@@@@@@@@@@@@@@@@\n@@@@@@@@@@@@@@S##########.@@@@@@@@@@@@@@@@@@@@@@@@@@@@@@@@@@@@@@@@@@@@@############@@@@@@@@@@@@@@@@@\n@@@@@@@@@@@@@@S##########.@@@@@@@@@@@@@@@@@@@@@@@@@@@@@@@@@@@@@@@@@@@@@############@@@@@@@@@@@@@@@@@\n@@@@@@@@@@@@@@S##########.@@@@@@@@@@@@@@@@@@@@@@@@@@@@@@@@@@@@@@@@@@@@@############@@@@@@@@@@@@@@@@@\n@@@@@@@@@@@@@@S##########.@@@@@@@@@@@@@@@@@@@@@@@@@@@@@@@@@@@@@@@@@@@@@############@@@@@@@@@@@@@@@@@\n@@@@@@@@@@@@@@S##########.@@@@@@@@@@@@@@@@@@@@@@@@@@@@@@@@@@@@@@@@@@@@@############@@@@@@@@@@@@@@@@@\n@@@@@@@@@@@@@@S##########.@@@@@@@@@@@@@@@@@@@@@@@@@@@@@@@@@@@@@@@@@@@@@############@@@@@@@@@@@@@@@@@\n@@@@@@@@@@@@@@S##########.@@@@@@@@@@@@@@@@@@@@@@@@@@@@@@@@@@@@@@@@@@@@@############@@@@@@@@@@@@@@@@@\n@@@@@@@@@@@@@@S##########.@@@@@@@@@@@@@@@@@@@@@@@@@@@@@@@@@@@@@@@@@@@@@############@@@@@@@@@@@@@@@@@\n@@@@@@@@@@@@@@S##########.@@@@@@@@@@@@@@@@@@@@@@@@@@@@@@@@@@@@@@@@@@@@@############@@@@@@@@@@@@@@@@@\n@@@@@@@@@@@@@@S##########.@@@@@@@@@@@@@@@@@@@@@@@@@@@@@@@@@@@@@@@@@@@@@############@@@@@@@@@@@@@@@@@\n@@@@@@@@@@@@@@S##########.@@@@@@@@@@@@@@@@@@@@@@@@@@@@@@@@@@@@@@@@@@@@@############@@@@@@@@@@@@@@@@@\n@@@@@@@@@@@@@@S##########.@@@@@@@@@@@@@@@@@@@@@@@@@@@@@@@@@@@@@@@@@@@@@############@@@@@@@@@@@@@@@@@\n@@@@@@@@@@@@@@S##########.@@@@@@@@@@@@@@@@@@@@@@@@@@@@@@@@@@@@@@@@@@@@@############@@@@@@@@@@@@@@@@@\n@@@@@@@@@@@@@@S##########.@@@@@@@@@@@@@@@@@@@@@@@@@@@@@@@@@@@@@@@@@@@@,##########??@@@@@@@@@@@@@@@@@\n@@@@@@@@@@@@@@S##########.@@@@@@@@@@@@@@@@@@@@@@@@@@@@@@@@@@@@@@@@@@@@,##########??@@@@@@@@@@@@@@@@@\n@@@@@@@@@@@@@@S##########+@@@@@@@@@@@@@@@@@@@@@@@@@@@@@@@@@@@@@@@@@@@@:##########??@@@@@@@@@@@@@@@@@\n@@@@@@@@@@@@@@S##########+@@@@@@@@@@@@@@@@@@@@@@@@@@@@@@@@@@@@@@@@@@@@:##########??@@@@@@@@@@@@@@@@@\n@@@@@@@@@@@@@@+##########S@@@@@@@@@@@@@@@@@@@@@@@@@@@@@@@@@@@@@@@@@@@@*##########%%@@@@@@@@@@@@@@@@@\n@@@@@@@@@@@@@@.##########.@@@@@@@@@@@@@@@@@@@@@@@@@@@@@@@@@@@@@@@@@@@@.##########..@@@@@@@@@@@@@@@@@\n@@@@@@@@@@@@@@*##########?@@@@@@@@@@@@@@@@@@@@@@@@@@@@@@@@@@@@@@@@@@@@S##########++@@@@@@@@@@@@@@@@@\n@@@@@@@@@@@@@@,###########,@@@@@@@@@@@@@@@@@@@@@@@@@@@@@@@@@@@@@@@@@@@?##########**@@@@@@@@@@@@@@@@@\n@@@@@@@@@@@@@@,###########,@@@@@@@@@@@@@@@@@@@@@@@@@@@@@@@@@@@@@@@@@@@?##########**@@@@@@@@@@@@@@@@@\n@@@@@@@@@@@@@@@###########*@@@@@@@@@@@@@@@@@@@@@@@@@@@@@@@@@@@@@@@@@@:###########,,@@@@@@@@@@@@@@@@@\n@@@@@@@@@@@@@@@.##########.@@@@@@@@@@@@@@@@@@@@@@@@@@@@@@@@@@@@@@@@@@S##########?@@@@@@@@@@@@@@@@@@@\n@@@@@@@@@@@@@@@+###########,,@@@@@@@@@@@@@@@@@@@@@@@@@@@@@@@@@@@@@@@,###########S@@@@@@@@@@@@@@@@@@@\n@@@@@@@@@@@@@@@,###########++@@@@@@@@@@@@@@@@@@@@@@@@@@@@@@@@@@@@@@@+###########:@@@@@@@@@@@@@@@@@@@\n@@@@@@@@@@@@@@@,###########++@@@@@@@@@@@@@@@@@@@@@@@@@@@@@@@@@@@@@@@+###########:@@@@@@@@@@@@@@@@@@@\n@@@@@@@@@@@@@@@@.############,@@@@@@@@@@@@@@@@@@@@@@@@@@@@@@@@@@@@::###########%@@@@@@@@@@@@@@@@@@@@\n@@@@@@@@@@@@@@@@*############%@@@@@@@@@@@@@@@@@@@@@@@@@@@@@@@@@@@,%%###########*@@@@@@@@@@@@@@@@@@@@\n@@@@@@@@@@@@@@@@@%%###########S@@@@@@@@@@@@@@@@@@@@@@@@@@@@@@@@@@.############%@@@@@@@@@@@@@@@@@@@@@\n@@@@@@@@@@@@@@@@@::############S@@@@@@@@@@@@@@@@@@@@@@@@@@@@@@@,.#############:@@@@@@@@@@@@@@@@@@@@@\n@@@@@@@@@@@@@@@@@::############S@@@@@@@@@@@@@@@@@@@@@@@@@@@@@@@,.#############:@@@@@@@@@@@@@@@@@@@@@\n@@@@@@@@@@@@@@@@@@@S############..,@@@@@@@@@@@@@@@@@@@@@@@@@@::?############SS@@@@@@@@@@@@@@@@@@@@@@\n@@@@@@@@@@@@@@@@@@@,?##############.,@@@@@@@@@@@@@@@@@@@@@@:S##############%,,@@@@@@@@@@@@@@@@@@@@@@\n@@@@@@@@@@@@@@@@@@@@:###############?SS:@@@@@@@@@@@@@@@,..%###############?,@@@@@@@@@@@@@@@@@@@@@@@@\n@@@@@@@@@@@@@@@@@@@@@*###################%SS+.....+SS.?##################?:@@@@@@@@@@@@@@@@@@@@@@@@@\n@@@@@@@@@@@@@@@@@@@@@*###################%SS+.....+SS.?##################?:@@@@@@@@@@@@@@@@@@@@@@@@@\n@@@@@@@@@@@@@@@@@@@@@@::###############################################??:@@@@@@@@@@@@@@@@@@@@@@@@@@\n@@@@@@@@@@@@@@@@@@@@@@@@:%############################################.,,@@@@@@@@@@@@@@@@@@@@@@@@@@@\n@@@@@@@@@@@@@@@@@@@@@@@@@,S##########################################.@@@@@@@@@@@@@@@@@@@@@@@@@@@@@@\n@@@@@@@@@@@@@@@@@@@@@@@@@@@::%####################################SS,@@@@@@@@@@@@@@@@@@@@@@@@@@@@@@@\n@@@@@@@@@@@@@@@@@@@@@@@@@@@::%####################################SS,@@@@@@@@@@@@@@@@@@@@@@@@@@@@@@@\n@@@@@@@@@@@@@@@@@@@@@@@@@@@@@@:.################################S,@@@@@@@@@@@@@@@@@@@@@@@@@@@@@@@@@@\n@@@@@@@@@@@@@@@@@@@@@@@@@@@@@@@@,,..#######################?S**@@@@@@@@@@@@@@@@@@@@@@@@@@@@@@@@@@@@@\n@@@@@@@@@@@@@@@@@@@@@@@@@@@@@@@@@@@@@::.S.%%?######??%.+**,@@@@@@@@@@@@@@@@@@@@@@@@@@@@@@@@@@@@@@@@@\n@@@@@@@@@@@@@@@@@@@@@@@@@@@@@@@@@@@@@@@@@@@@@@@@@@@@@@@@@@@@@@@@@@@@@@@@@@@@@@@@@@@@@@@@@@@@@@@@@@@@\n@@@@@@@@@@@@@@@@@@@@@@@@@@@@@@@@@@@@@@@@@@@@@@@@@@@@@@@@@@@@@@@@@@@@@@@@@@@@@@@@@@@@@@@@@@@@@@@@@@@@\n@@@@@@@@@@@@@@@@@@@@@@@@@@@@@@@@@@@@@@@@@@@@@@@@@@@@@@@@@@@@@@@@@@@@@@@@@@@@@@@@@@@@@@@@@@@@@@@@@@@@\n@@@@@@@@@@@@@@@@@@@@@@@@@@@@@@@@@@@@@@@@@@@@@@@@@@@@@@@@@@@@@@@@@@@@@@@@@@@@@@@@@@@@@@@@@@@@@@@@@@@@\n@@@@@@@@@@@@@@@@@@@@@@@@@@@@@@@@@@@@@@@@@@@@@@@@@@@@@@@@@@@@@@@@@@@@@@@@@@@@@@@@@@@@@@@@@@@@@@@@@@@@\n@@@@@@@@@@@@@@@@@@@@@@@@@@@@@@@@@@@@@@@@@@@@@@@@@@@@@@@@@@@@@@@@@@@@@@@@@@@@@@@@@@@@@@@@@@@@@@@@@@@@\n@@@@@@@@@@@@@@@@@@@@@@@@@@@@@@@@@@@@@@@@@@@@@@@@@@@@@@@@@@@@@@@@@@@@@@@@@@@@@@@@@@@@@@@@@@@@@@@@@@@@\n@@@@@@@@@@@@@@@@@@@@@@@@@@@@@@@@@@@@@@@@@@@@@@@@@@@@@@@@@@@@@@@@@@@@@@@@@@@@@@@@@@@@@@@@@@@@@@@@@@@@\n@@@@@@@@@@@@@@@@@@@@@@@@@@@@@@@@@@@@@@@@@@@@@@@@@@@@@@@@@@@@@@@@@@@@@@@@@@@@@@@@@@@@@@@@@@@@@@@@@@@@'
p23
aS'U'
p24
aa(lp25
S'@@@@@@@@@@@@@@@@@@@@@@@@@@@@@@@@@@@@@@@@@@@@@@@@@@@@@@@@@@@@@@@@@@@@@@@@@@@@@@@@@@@@@@@@@@@@@@@@@@@@\n@@@@@@@@@@@@@@@@@@@@@@@@@@@@@@@@@@@@@@@@@@@@@@@@@@@@@@@@@@@@@@@@@@@@@@@@@@@@@@@@@@@@@@@@@@@@@@@@@@@@\n@@@@@@@@@@@@@@@@@@@@@@@@@@@@@@@@@@@@@@@@@@@@@@@@@@@@@@@@@@@@@@@@@@@@@@@@@@@@@@@@@@@@@@@@@@@@@@@@@@@@\n@@@@@@@@@@@@@@@@@@@@@@@@@@@@@@@@@@@@@@@@@@@@@@@@@@@@@@@@@@@@@@@@@@@@@@@@@@@@@@@@@@@@@@@@@@@@@@@@@@@@\n@@@@@@@@@@@@@@@@@@@@@@@@@@@@@@@@@@@@@@@@@@@@@@@@@@@@@@@@@@@@@@@@@@@@@@@@@@@@@@@@@@@@@@@@@@@@@@@@@@@@\n@@@@@@@@@@@@@@@@@@@@@@@@@@@@@@@@@@@@@@@@@@@@@@@@@@@@@@@@@@@@@@@@@@@@@@@@@@@@@@@@@@@@@@@@@@@@@@@@@@@@\n@@@@@@@@@@@@@@S####################################################################.@@@@@@@@@@@@@@@@\n@@@@@@@@@@@@@@S####################################################################.@@@@@@@@@@@@@@@@\n@@@@@@@@@@@@@@.####################################################################.@@@@@@@@@@@@@@@@\n@@@@@@@@@@@@@@.####################################################################.@@@@@@@@@@@@@@@@\n@@@@@@@@@@@@@@.####################################################################.@@@@@@@@@@@@@@@@\n@@@@@@@@@@@@@@.####################################################################.@@@@@@@@@@@@@@@@\n@@@@@@@@@@@@@@.####################################################################.@@@@@@@@@@@@@@@@\n@@@@@@@@@@@@@@.####################################################################.@@@@@@@@@@@@@@@@\n@@@@@@@@@@@@@@.####################################################################.@@@@@@@@@@@@@@@@\n@@@@@@@@@@@@@@S####################################################################:@@@@@@@@@@@@@@@@\n@@@@@@@@@@@@@@@@@@@@@@@@@@@@@@@@@@@@@@@@@@@@@@@@@@@@@@@@@@@@@@@@@@,,?############..@@@@@@@@@@@@@@@@@\n@@@@@@@@@@@@@@@@@@@@@@@@@@@@@@@@@@@@@@@@@@@@@@@@@@@@@@@@@@@@@@@@@@..############S@@@@@@@@@@@@@@@@@@@\n@@@@@@@@@@@@@@@@@@@@@@@@@@@@@@@@@@@@@@@@@@@@@@@@@@@@@@@@@@@@@@@@@@..############S@@@@@@@@@@@@@@@@@@@\n@@@@@@@@@@@@@@@@@@@@@@@@@@@@@@@@@@@@@@@@@@@@@@@@@@@@@@@@@@@@@@@@@+#############%@@@@@@@@@@@@@@@@@@@@\n@@@@@@@@@@@@@@@@@@@@@@@@@@@@@@@@@@@@@@@@@@@@@@@@@@@@@@@@@@@@@@@@*#############?,@@@@@@@@@@@@@@@@@@@@\n@@@@@@@@@@@@@@@@@@@@@@@@@@@@@@@@@@@@@@@@@@@@@@@@@@@@@@@@@@@@@@@:##############:@@@@@@@@@@@@@@@@@@@@@\n@@@@@@@@@@@@@@@@@@@@@@@@@@@@@@@@@@@@@@@@@@@@@@@@@@@@@@@@@@@@@,,?############..@@@@@@@@@@@@@@@@@@@@@@\n@@@@@@@@@@@@@@@@@@@@@@@@@@@@@@@@@@@@@@@@@@@@@@@@@@@@@@@@@@@@@,,?############..@@@@@@@@@@@@@@@@@@@@@@\n@@@@@@@@@@@@@@@@@@@@@@@@@@@@@@@@@@@@@@@@@@@@@@@@@@@@@@@@@@@@@..############+@@@@@@@@@@@@@@@@@@@@@@@@\n@@@@@@@@@@@@@@@@@@@@@@@@@@@@@@@@@@@@@@@@@@@@@@@@@@@@@@@@@@@@S#############.@@@@@@@@@@@@@@@@@@@@@@@@@\n@@@@@@@@@@@@@@@@@@@@@@@@@@@@@@@@@@@@@@@@@@@@@@@@@@@@@@@@@@@.#############?,@@@@@@@@@@@@@@@@@@@@@@@@@\n@@@@@@@@@@@@@@@@@@@@@@@@@@@@@@@@@@@@@@@@@@@@@@@@@@@@@@@@@@:##############:@@@@@@@@@@@@@@@@@@@@@@@@@@\n@@@@@@@@@@@@@@@@@@@@@@@@@@@@@@@@@@@@@@@@@@@@@@@@@@@@@@@@@@:##############:@@@@@@@@@@@@@@@@@@@@@@@@@@\n@@@@@@@@@@@@@@@@@@@@@@@@@@@@@@@@@@@@@@@@@@@@@@@@@@@@@@@@,,?############**@@@@@@@@@@@@@@@@@@@@@@@@@@@\n@@@@@@@@@@@@@@@@@@@@@@@@@@@@@@@@@@@@@@@@@@@@@@@@@@@@@@@@%%############+@@@@@@@@@@@@@@@@@@@@@@@@@@@@@\n@@@@@@@@@@@@@@@@@@@@@@@@@@@@@@@@@@@@@@@@@@@@@@@@@@@@@@@S#############.@@@@@@@@@@@@@@@@@@@@@@@@@@@@@@\n@@@@@@@@@@@@@@@@@@@@@@@@@@@@@@@@@@@@@@@@@@@@@@@@@@@@@@.#############?,@@@@@@@@@@@@@@@@@@@@@@@@@@@@@@\n@@@@@@@@@@@@@@@@@@@@@@@@@@@@@@@@@@@@@@@@@@@@@@@@@@@@@@.#############?,@@@@@@@@@@@@@@@@@@@@@@@@@@@@@@\n@@@@@@@@@@@@@@@@@@@@@@@@@@@@@@@@@@@@@@@@@@@@@@@@@@@@@:##############:@@@@@@@@@@@@@@@@@@@@@@@@@@@@@@@\n@@@@@@@@@@@@@@@@@@@@@@@@@@@@@@@@@@@@@@@@@@@@@@@@@@@,,?############**@@@@@@@@@@@@@@@@@@@@@@@@@@@@@@@@\n@@@@@@@@@@@@@@@@@@@@@@@@@@@@@@@@@@@@@@@@@@@@@@@@@@,%%############+@@@@@@@@@@@@@@@@@@@@@@@@@@@@@@@@@@\n@@@@@@@@@@@@@@@@@@@@@@@@@@@@@@@@@@@@@@@@@@@@@@@@@@S#############.@@@@@@@@@@@@@@@@@@@@@@@@@@@@@@@@@@@\n@@@@@@@@@@@@@@@@@@@@@@@@@@@@@@@@@@@@@@@@@@@@@@@@@@S#############.@@@@@@@@@@@@@@@@@@@@@@@@@@@@@@@@@@@\n@@@@@@@@@@@@@@@@@@@@@@@@@@@@@@@@@@@@@@@@@@@@@@@@@.#############%,@@@@@@@@@@@@@@@@@@@@@@@@@@@@@@@@@@@\n@@@@@@@@@@@@@@@@@@@@@@@@@@@@@@@@@@@@@@@@@@@@@@@**##############,@@@@@@@@@@@@@@@@@@@@@@@@@@@@@@@@@@@@\n@@@@@@@@@@@@@@@@@@@@@@@@@@@@@@@@@@@@@@@@@@@@@@,##############**@@@@@@@@@@@@@@@@@@@@@@@@@@@@@@@@@@@@@\n@@@@@@@@@@@@@@@@@@@@@@@@@@@@@@@@@@@@@@@@@@@@@,%#############.@@@@@@@@@@@@@@@@@@@@@@@@@@@@@@@@@@@@@@@\n@@@@@@@@@@@@@@@@@@@@@@@@@@@@@@@@@@@@@@@@@@@@@,%#############.@@@@@@@@@@@@@@@@@@@@@@@@@@@@@@@@@@@@@@@\n@@@@@@@@@@@@@@@@@@@@@@@@@@@@@@@@@@@@@@@@@@@@@.#############S@@@@@@@@@@@@@@@@@@@@@@@@@@@@@@@@@@@@@@@@\n@@@@@@@@@@@@@@@@@@@@@@@@@@@@@@@@@@@@@@@@@@@@+#############%,@@@@@@@@@@@@@@@@@@@@@@@@@@@@@@@@@@@@@@@@\n@@@@@@@@@@@@@@@@@@@@@@@@@@@@@@@@@@@@@@@@@@**############??,@@@@@@@@@@@@@@@@@@@@@@@@@@@@@@@@@@@@@@@@@\n@@@@@@@@@@@@@@@@@@@@@@@@@@@@@@@@@@@@@@@@@:##############::@@@@@@@@@@@@@@@@@@@@@@@@@@@@@@@@@@@@@@@@@@\n@@@@@@@@@@@@@@@@@@@@@@@@@@@@@@@@@@@@@@@@@:##############::@@@@@@@@@@@@@@@@@@@@@@@@@@@@@@@@@@@@@@@@@@\n@@@@@@@@@@@@@@@@@@@@@@@@@@@@@@@@@@@@@@@@,?#############.@@@@@@@@@@@@@@@@@@@@@@@@@@@@@@@@@@@@@@@@@@@@\n@@@@@@@@@@@@@@@@@@@@@@@@@@@@@@@@@@@@@@@@.#############S@@@@@@@@@@@@@@@@@@@@@@@@@@@@@@@@@@@@@@@@@@@@@\n@@@@@@@@@@@@@@@@@@@@@@@@@@@@@@@@@@@@@@@+#############%@@@@@@@@@@@@@@@@@@@@@@@@@@@@@@@@@@@@@@@@@@@@@@\n@@@@@@@@@@@@@@@@@@@@@@@@@@@@@@@@@@@@@@@+#############%@@@@@@@@@@@@@@@@@@@@@@@@@@@@@@@@@@@@@@@@@@@@@@\n@@@@@@@@@@@@@@@@@@@@@@@@@@@@@@@@@@@@@**############??,@@@@@@@@@@@@@@@@@@@@@@@@@@@@@@@@@@@@@@@@@@@@@@\n@@@@@@@@@@@@@@@@@@@@@@@@@@@@@@@@@@@@:##############::@@@@@@@@@@@@@@@@@@@@@@@@@@@@@@@@@@@@@@@@@@@@@@@\n@@@@@@@@@@@@@@@@@@@@@@@@@@@@@@@@@@@,?#############.@@@@@@@@@@@@@@@@@@@@@@@@@@@@@@@@@@@@@@@@@@@@@@@@@\n@@@@@@@@@@@@@@@@@@@@@@@@@@@@@@@@@@@.#############S@@@@@@@@@@@@@@@@@@@@@@@@@@@@@@@@@@@@@@@@@@@@@@@@@@\n@@@@@@@@@@@@@@@@@@@@@@@@@@@@@@@@@@@.#############S@@@@@@@@@@@@@@@@@@@@@@@@@@@@@@@@@@@@@@@@@@@@@@@@@@\n@@@@@@@@@@@@@@@@@@@@@@@@@@@@@@@@@@+############..@@@@@@@@@@@@@@@@@@@@@@@@@@@@@@@@@@@@@@@@@@@@@@@@@@@\n@@@@@@@@@@@@@@@@@@@@@@@@@@@@@@@@..############?,,@@@@@@@@@@@@@@@@@@@@@@@@@@@@@@@@@@@@@@@@@@@@@@@@@@@\n@@@@@@@@@@@@@@@@@@@@@@@@@@@@@@@:##############:@@@@@@@@@@@@@@@@@@@@@@@@@@@@@@@@@@@@@@@@@@@@@@@@@@@@@\n@@@@@@@@@@@@@@@@@@@@@@@@@@@@@@,?#############*@@@@@@@@@@@@@@@@@@@@@@@@@@@@@@@@@@@@@@@@@@@@@@@@@@@@@@\n@@@@@@@@@@@@@@@@@@@@@@@@@@@@@@,?#############*@@@@@@@@@@@@@@@@@@@@@@@@@@@@@@@@@@@@@@@@@@@@@@@@@@@@@@\n@@@@@@@@@@@@@@@@@@@@@@@@@@@@@@%#############+@@@@@@@@@@@@@@@@@@@@@@@@@@@@@@@@@@@@@@@@@@@@@@@@@@@@@@@\n@@@@@@@@@@@@@@@@@@@@@@@@@@@@@S############..@@@@@@@@@@@@@@@@@@@@@@@@@@@@@@@@@@@@@@@@@@@@@@@@@@@@@@@@\n@@@@@@@@@@@@@@@@@@@@@@@@@@@..############?,,@@@@@@@@@@@@@@@@@@@@@@@@@@@@@@@@@@@@@@@@@@@@@@@@@@@@@@@@\n@@@@@@@@@@@@@@@@@@@@@@@@@@:##############:@@@@@@@@@@@@@@@@@@@@@@@@@@@@@@@@@@@@@@@@@@@@@@@@@@@@@@@@@@\n@@@@@@@@@@@@@@@@@@@@@@@@@@:##############:@@@@@@@@@@@@@@@@@@@@@@@@@@@@@@@@@@@@@@@@@@@@@@@@@@@@@@@@@@\n@@@@@@@@@@@@@@@@@@@@@@@@@,?#############*@@@@@@@@@@@@@@@@@@@@@@@@@@@@@@@@@@@@@@@@@@@@@@@@@@@@@@@@@@@\n@@@@@@@@@@@@@@@@@@@@@@@@@%#############+@@@@@@@@@@@@@@@@@@@@@@@@@@@@@@@@@@@@@@@@@@@@@@@@@@@@@@@@@@@@\n@@@@@@@@@@@@@@@@@@@@@@@@S############..@@@@@@@@@@@@@@@@@@@@@@@@@@@@@@@@@@@@@@@@@@@@@@@@@@@@@@@@@@@@@\n@@@@@@@@@@@@@@@@@@@@@@..############%,,@@@@@@@@@@@@@@@@@@@@@@@@@@@@@@@@@@@@@@@@@@@@@@@@@@@@@@@@@@@@@\n@@@@@@@@@@@@@@@@@@@@@@..############%,,@@@@@@@@@@@@@@@@@@@@@@@@@@@@@@@@@@@@@@@@@@@@@@@@@@@@@@@@@@@@@\n@@@@@@@@@@@@@@@@@@@@@*##############,@@@@@@@@@@@@@@@@@@@@@@@@@@@@@@@@@@@@@@@@@@@@@@@@@@@@@@@@@@@@@@@\n@@@@@@@@@@@@@@@@@@@@,##############*@@@@@@@@@@@@@@@@@@@@@@@@@@@@@@@@@@@@@@@@@@@@@@@@@@@@@@@@@@@@@@@@\n@@@@@@@@@@@@@@@@@@@,%#############.@@@@@@@@@@@@@@@@@@@@@@@@@@@@@@@@@@@@@@@@@@@@@@@@@@@@@@@@@@@@@@@@@\n@@@@@@@@@@@@@@@@@@@.############SS@@@@@@@@@@@@@@@@@@@@@@@@@@@@@@@@@@@@@@@@@@@@@@@@@@@@@@@@@@@@@@@@@@\n@@@@@@@@@@@@@@@@@@@.############SS@@@@@@@@@@@@@@@@@@@@@@@@@@@@@@@@@@@@@@@@@@@@@@@@@@@@@@@@@@@@@@@@@@\n@@@@@@@@@@@@@@@@@++############%,,@@@@@@@@@@@@@@@@@@@@@@@@@@@@@@@@@@@@@@@@@@@@@@@@@@@@@@@@@@@@@@@@@@\n@@@@@@@@@@@@@@@@*#############?,@@@@@@@@@@@@@@@@@@@@@@@@@@@@@@@@@@@@@@@@@@@@@@@@@@@@@@@@@@@@@@@@@@@@\n@@@@@@@@@@@@@@@:##############:@@@@@@@@@@@@@@@@@@@@@@@@@@@@@@@@@@@@@@@@@@@@@@@@@@@@@@@@@@@@@@@@@@@@@\n@@@@@@@@@@@@@@,?#############.@@@@@@@@@@@@@@@@@@@@@@@@@@@@@@@@@@@@@@@@@@@@@@@@@@@@@@@@@@@@@@@@@@@@@@\n@@@@@@@@@@@@@@,?#############.@@@@@@@@@@@@@@@@@@@@@@@@@@@@@@@@@@@@@@@@@@@@@@@@@@@@@@@@@@@@@@@@@@@@@@\n@@@@@@@@@@@@@@.############SS@@@@@@@@@@@@@@@@@@@@@@@@@@@@@@@@@@@@@@@@@@@@@@@@@@@@@@@@@@@@@@@@@@@@@@@\n@@@@@@@@@@@@++######################################################################+@@@@@@@@@@@@@@@\n@@@@@@@@@@@@..######################################################################+@@@@@@@@@@@@@@@\n@@@@@@@@@@@@..######################################################################+@@@@@@@@@@@@@@@\n@@@@@@@@@@@@..######################################################################+@@@@@@@@@@@@@@@\n@@@@@@@@@@@@..######################################################################+@@@@@@@@@@@@@@@\n@@@@@@@@@@@@..######################################################################+@@@@@@@@@@@@@@@\n@@@@@@@@@@@@..######################################################################+@@@@@@@@@@@@@@@\n@@@@@@@@@@@@..######################################################################+@@@@@@@@@@@@@@@\n@@@@@@@@@@@@..######################################################################+@@@@@@@@@@@@@@@\n@@@@@@@@@@@@..######################################################################+@@@@@@@@@@@@@@@\n@@@@@@@@@@@@@@@@@@@@@@@@@@@@@@@@@@@@@@@@@@@@@@@@@@@@@@@@@@@@@@@@@@@@@@@@@@@@@@@@@@@@@@@@@@@@@@@@@@@@\n@@@@@@@@@@@@@@@@@@@@@@@@@@@@@@@@@@@@@@@@@@@@@@@@@@@@@@@@@@@@@@@@@@@@@@@@@@@@@@@@@@@@@@@@@@@@@@@@@@@@\n@@@@@@@@@@@@@@@@@@@@@@@@@@@@@@@@@@@@@@@@@@@@@@@@@@@@@@@@@@@@@@@@@@@@@@@@@@@@@@@@@@@@@@@@@@@@@@@@@@@@\n@@@@@@@@@@@@@@@@@@@@@@@@@@@@@@@@@@@@@@@@@@@@@@@@@@@@@@@@@@@@@@@@@@@@@@@@@@@@@@@@@@@@@@@@@@@@@@@@@@@@\n@@@@@@@@@@@@@@@@@@@@@@@@@@@@@@@@@@@@@@@@@@@@@@@@@@@@@@@@@@@@@@@@@@@@@@@@@@@@@@@@@@@@@@@@@@@@@@@@@@@@\n@@@@@@@@@@@@@@@@@@@@@@@@@@@@@@@@@@@@@@@@@@@@@@@@@@@@@@@@@@@@@@@@@@@@@@@@@@@@@@@@@@@@@@@@@@@@@@@@@@@@'
p26
aS'z'
p27
aa.